(lp0
(cnumpy.core.multiarray
scalar
p1
(cnumpy
dtype
p2
(S'u1'
p3
I0
I1
tp4
Rp5
(I3
S'|'
p6
NNNI-1
I-1
I0
tp7
bS'\x00'
p8
tp9
Rp10
g1
(g5
g8
tp11
Rp12
g1
(g5
g8
tp13
Rp14
tp15
a(g1
(g5
g8
tp16
Rp17
g1
(g5
g8
tp18
Rp19
g1
(g5
g8
tp20
Rp21
tp22
a(g1
(g5
g8
tp23
Rp24
g1
(g5
g8
tp25
Rp26
g1
(g5
g8
tp27
Rp28
tp29
a(g1
(g5
g8
tp30
Rp31
g1
(g5
g8
tp32
Rp33
g1
(g5
g8
tp34
Rp35
tp36
a(g1
(g5
g8
tp37
Rp38
g1
(g5
g8
tp39
Rp40
g1
(g5
g8
tp41
Rp42
tp43
a(g1
(g5
g8
tp44
Rp45
g1
(g5
g8
tp46
Rp47
g1
(g5
g8
tp48
Rp49
tp50
a(g1
(g5
g8
tp51
Rp52
g1
(g5
g8
tp53
Rp54
g1
(g5
g8
tp55
Rp56
tp57
a(g1
(g5
g8
tp58
Rp59
g1
(g5
g8
tp60
Rp61
g1
(g5
g8
tp62
Rp63
tp64
a(g1
(g5
g8
tp65
Rp66
g1
(g5
g8
tp67
Rp68
g1
(g5
g8
tp69
Rp70
tp71
a(g1
(g5
g8
tp72
Rp73
g1
(g5
g8
tp74
Rp75
g1
(g5
g8
tp76
Rp77
tp78
a(g1
(g5
g8
tp79
Rp80
g1
(g5
g8
tp81
Rp82
g1
(g5
g8
tp83
Rp84
tp85
a(g1
(g5
g8
tp86
Rp87
g1
(g5
g8
tp88
Rp89
g1
(g5
g8
tp90
Rp91
tp92
a(g1
(g5
g8
tp93
Rp94
g1
(g5
g8
tp95
Rp96
g1
(g5
g8
tp97
Rp98
tp99
a(g1
(g5
g8
tp100
Rp101
g1
(g5
g8
tp102
Rp103
g1
(g5
g8
tp104
Rp105
tp106
a(g1
(g5
g8
tp107
Rp108
g1
(g5
g8
tp109
Rp110
g1
(g5
g8
tp111
Rp112
tp113
a(g1
(g5
g8
tp114
Rp115
g1
(g5
g8
tp116
Rp117
g1
(g5
g8
tp118
Rp119
tp120
a(g1
(g5
g8
tp121
Rp122
g1
(g5
g8
tp123
Rp124
g1
(g5
g8
tp125
Rp126
tp127
a(g1
(g5
g8
tp128
Rp129
g1
(g5
g8
tp130
Rp131
g1
(g5
g8
tp132
Rp133
tp134
a(g1
(g5
g8
tp135
Rp136
g1
(g5
g8
tp137
Rp138
g1
(g5
g8
tp139
Rp140
tp141
a(g1
(g5
g8
tp142
Rp143
g1
(g5
g8
tp144
Rp145
g1
(g5
g8
tp146
Rp147
tp148
a(g1
(g5
g8
tp149
Rp150
g1
(g5
g8
tp151
Rp152
g1
(g5
g8
tp153
Rp154
tp155
a(g1
(g5
g8
tp156
Rp157
g1
(g5
g8
tp158
Rp159
g1
(g5
g8
tp160
Rp161
tp162
a(g1
(g5
g8
tp163
Rp164
g1
(g5
g8
tp165
Rp166
g1
(g5
g8
tp167
Rp168
tp169
a(g1
(g5
g8
tp170
Rp171
g1
(g5
g8
tp172
Rp173
g1
(g5
g8
tp174
Rp175
tp176
a(g1
(g5
g8
tp177
Rp178
g1
(g5
g8
tp179
Rp180
g1
(g5
g8
tp181
Rp182
tp183
a(g1
(g5
g8
tp184
Rp185
g1
(g5
g8
tp186
Rp187
g1
(g5
g8
tp188
Rp189
tp190
a(g1
(g5
g8
tp191
Rp192
g1
(g5
g8
tp193
Rp194
g1
(g5
g8
tp195
Rp196
tp197
a(g1
(g5
g8
tp198
Rp199
g1
(g5
g8
tp200
Rp201
g1
(g5
g8
tp202
Rp203
tp204
a(g1
(g5
g8
tp205
Rp206
g1
(g5
g8
tp207
Rp208
g1
(g5
g8
tp209
Rp210
tp211
a(g1
(g5
g8
tp212
Rp213
g1
(g5
g8
tp214
Rp215
g1
(g5
g8
tp216
Rp217
tp218
a(g1
(g5
g8
tp219
Rp220
g1
(g5
g8
tp221
Rp222
g1
(g5
g8
tp223
Rp224
tp225
a(g1
(g5
g8
tp226
Rp227
g1
(g5
g8
tp228
Rp229
g1
(g5
g8
tp230
Rp231
tp232
a(g1
(g5
g8
tp233
Rp234
g1
(g5
g8
tp235
Rp236
g1
(g5
g8
tp237
Rp238
tp239
a(g1
(g5
g8
tp240
Rp241
g1
(g5
g8
tp242
Rp243
g1
(g5
g8
tp244
Rp245
tp246
a(g1
(g5
g8
tp247
Rp248
g1
(g5
g8
tp249
Rp250
g1
(g5
g8
tp251
Rp252
tp253
a(g1
(g5
g8
tp254
Rp255
g1
(g5
g8
tp256
Rp257
g1
(g5
g8
tp258
Rp259
tp260
a(g1
(g5
g8
tp261
Rp262
g1
(g5
g8
tp263
Rp264
g1
(g5
g8
tp265
Rp266
tp267
a(g1
(g5
g8
tp268
Rp269
g1
(g5
g8
tp270
Rp271
g1
(g5
g8
tp272
Rp273
tp274
a(g1
(g5
g8
tp275
Rp276
g1
(g5
g8
tp277
Rp278
g1
(g5
g8
tp279
Rp280
tp281
a(g1
(g5
g8
tp282
Rp283
g1
(g5
g8
tp284
Rp285
g1
(g5
g8
tp286
Rp287
tp288
a(g1
(g5
g8
tp289
Rp290
g1
(g5
g8
tp291
Rp292
g1
(g5
g8
tp293
Rp294
tp295
a(g1
(g5
g8
tp296
Rp297
g1
(g5
g8
tp298
Rp299
g1
(g5
g8
tp300
Rp301
tp302
a(g1
(g5
g8
tp303
Rp304
g1
(g5
g8
tp305
Rp306
g1
(g5
g8
tp307
Rp308
tp309
a(g1
(g5
g8
tp310
Rp311
g1
(g5
g8
tp312
Rp313
g1
(g5
g8
tp314
Rp315
tp316
a(g1
(g5
g8
tp317
Rp318
g1
(g5
g8
tp319
Rp320
g1
(g5
g8
tp321
Rp322
tp323
a(g1
(g5
g8
tp324
Rp325
g1
(g5
g8
tp326
Rp327
g1
(g5
g8
tp328
Rp329
tp330
a(g1
(g5
g8
tp331
Rp332
g1
(g5
g8
tp333
Rp334
g1
(g5
g8
tp335
Rp336
tp337
a(g1
(g5
g8
tp338
Rp339
g1
(g5
g8
tp340
Rp341
g1
(g5
g8
tp342
Rp343
tp344
a(g1
(g5
g8
tp345
Rp346
g1
(g5
g8
tp347
Rp348
g1
(g5
g8
tp349
Rp350
tp351
a(g1
(g5
g8
tp352
Rp353
g1
(g5
g8
tp354
Rp355
g1
(g5
g8
tp356
Rp357
tp358
a(g1
(g5
g8
tp359
Rp360
g1
(g5
g8
tp361
Rp362
g1
(g5
g8
tp363
Rp364
tp365
a(g1
(g5
g8
tp366
Rp367
g1
(g5
g8
tp368
Rp369
g1
(g5
g8
tp370
Rp371
tp372
a(g1
(g5
g8
tp373
Rp374
g1
(g5
g8
tp375
Rp376
g1
(g5
g8
tp377
Rp378
tp379
a(g1
(g5
g8
tp380
Rp381
g1
(g5
g8
tp382
Rp383
g1
(g5
g8
tp384
Rp385
tp386
a(g1
(g5
g8
tp387
Rp388
g1
(g5
g8
tp389
Rp390
g1
(g5
g8
tp391
Rp392
tp393
a(g1
(g5
g8
tp394
Rp395
g1
(g5
g8
tp396
Rp397
g1
(g5
g8
tp398
Rp399
tp400
a(g1
(g5
g8
tp401
Rp402
g1
(g5
g8
tp403
Rp404
g1
(g5
g8
tp405
Rp406
tp407
a(g1
(g5
g8
tp408
Rp409
g1
(g5
g8
tp410
Rp411
g1
(g5
g8
tp412
Rp413
tp414
a(g1
(g5
g8
tp415
Rp416
g1
(g5
g8
tp417
Rp418
g1
(g5
g8
tp419
Rp420
tp421
a(g1
(g5
g8
tp422
Rp423
g1
(g5
g8
tp424
Rp425
g1
(g5
g8
tp426
Rp427
tp428
a(g1
(g5
g8
tp429
Rp430
g1
(g5
g8
tp431
Rp432
g1
(g5
g8
tp433
Rp434
tp435
a(g1
(g5
g8
tp436
Rp437
g1
(g5
g8
tp438
Rp439
g1
(g5
g8
tp440
Rp441
tp442
a(g1
(g5
g8
tp443
Rp444
g1
(g5
g8
tp445
Rp446
g1
(g5
g8
tp447
Rp448
tp449
a(g1
(g5
g8
tp450
Rp451
g1
(g5
g8
tp452
Rp453
g1
(g5
g8
tp454
Rp455
tp456
a(g1
(g5
g8
tp457
Rp458
g1
(g5
g8
tp459
Rp460
g1
(g5
g8
tp461
Rp462
tp463
a(g1
(g5
g8
tp464
Rp465
g1
(g5
g8
tp466
Rp467
g1
(g5
g8
tp468
Rp469
tp470
a(g1
(g5
g8
tp471
Rp472
g1
(g5
g8
tp473
Rp474
g1
(g5
g8
tp475
Rp476
tp477
a(g1
(g5
g8
tp478
Rp479
g1
(g5
g8
tp480
Rp481
g1
(g5
g8
tp482
Rp483
tp484
a(g1
(g5
g8
tp485
Rp486
g1
(g5
g8
tp487
Rp488
g1
(g5
g8
tp489
Rp490
tp491
a(g1
(g5
g8
tp492
Rp493
g1
(g5
g8
tp494
Rp495
g1
(g5
g8
tp496
Rp497
tp498
a(g1
(g5
g8
tp499
Rp500
g1
(g5
g8
tp501
Rp502
g1
(g5
g8
tp503
Rp504
tp505
a(g1
(g5
g8
tp506
Rp507
g1
(g5
g8
tp508
Rp509
g1
(g5
g8
tp510
Rp511
tp512
a(g1
(g5
g8
tp513
Rp514
g1
(g5
g8
tp515
Rp516
g1
(g5
g8
tp517
Rp518
tp519
a(g1
(g5
g8
tp520
Rp521
g1
(g5
g8
tp522
Rp523
g1
(g5
g8
tp524
Rp525
tp526
a(g1
(g5
g8
tp527
Rp528
g1
(g5
g8
tp529
Rp530
g1
(g5
g8
tp531
Rp532
tp533
a(g1
(g5
g8
tp534
Rp535
g1
(g5
g8
tp536
Rp537
g1
(g5
g8
tp538
Rp539
tp540
a(g1
(g5
g8
tp541
Rp542
g1
(g5
g8
tp543
Rp544
g1
(g5
g8
tp545
Rp546
tp547
a(g1
(g5
g8
tp548
Rp549
g1
(g5
g8
tp550
Rp551
g1
(g5
g8
tp552
Rp553
tp554
a(g1
(g5
g8
tp555
Rp556
g1
(g5
g8
tp557
Rp558
g1
(g5
g8
tp559
Rp560
tp561
a(g1
(g5
g8
tp562
Rp563
g1
(g5
g8
tp564
Rp565
g1
(g5
g8
tp566
Rp567
tp568
a(g1
(g5
g8
tp569
Rp570
g1
(g5
g8
tp571
Rp572
g1
(g5
g8
tp573
Rp574
tp575
a(g1
(g5
g8
tp576
Rp577
g1
(g5
g8
tp578
Rp579
g1
(g5
g8
tp580
Rp581
tp582
a(g1
(g5
g8
tp583
Rp584
g1
(g5
g8
tp585
Rp586
g1
(g5
g8
tp587
Rp588
tp589
a(g1
(g5
g8
tp590
Rp591
g1
(g5
g8
tp592
Rp593
g1
(g5
g8
tp594
Rp595
tp596
a(g1
(g5
g8
tp597
Rp598
g1
(g5
g8
tp599
Rp600
g1
(g5
g8
tp601
Rp602
tp603
a(g1
(g5
g8
tp604
Rp605
g1
(g5
g8
tp606
Rp607
g1
(g5
g8
tp608
Rp609
tp610
a(g1
(g5
g8
tp611
Rp612
g1
(g5
g8
tp613
Rp614
g1
(g5
g8
tp615
Rp616
tp617
a(g1
(g5
g8
tp618
Rp619
g1
(g5
g8
tp620
Rp621
g1
(g5
g8
tp622
Rp623
tp624
a(g1
(g5
g8
tp625
Rp626
g1
(g5
g8
tp627
Rp628
g1
(g5
g8
tp629
Rp630
tp631
a(g1
(g5
g8
tp632
Rp633
g1
(g5
g8
tp634
Rp635
g1
(g5
g8
tp636
Rp637
tp638
a(g1
(g5
g8
tp639
Rp640
g1
(g5
g8
tp641
Rp642
g1
(g5
g8
tp643
Rp644
tp645
a(g1
(g5
g8
tp646
Rp647
g1
(g5
g8
tp648
Rp649
g1
(g5
g8
tp650
Rp651
tp652
a(g1
(g5
g8
tp653
Rp654
g1
(g5
g8
tp655
Rp656
g1
(g5
g8
tp657
Rp658
tp659
a(g1
(g5
g8
tp660
Rp661
g1
(g5
g8
tp662
Rp663
g1
(g5
g8
tp664
Rp665
tp666
a(g1
(g5
g8
tp667
Rp668
g1
(g5
g8
tp669
Rp670
g1
(g5
g8
tp671
Rp672
tp673
a(g1
(g5
g8
tp674
Rp675
g1
(g5
g8
tp676
Rp677
g1
(g5
g8
tp678
Rp679
tp680
a(g1
(g5
g8
tp681
Rp682
g1
(g5
g8
tp683
Rp684
g1
(g5
g8
tp685
Rp686
tp687
a(g1
(g5
g8
tp688
Rp689
g1
(g5
g8
tp690
Rp691
g1
(g5
g8
tp692
Rp693
tp694
a(g1
(g5
g8
tp695
Rp696
g1
(g5
g8
tp697
Rp698
g1
(g5
g8
tp699
Rp700
tp701
a(g1
(g5
g8
tp702
Rp703
g1
(g5
g8
tp704
Rp705
g1
(g5
g8
tp706
Rp707
tp708
a(g1
(g5
g8
tp709
Rp710
g1
(g5
g8
tp711
Rp712
g1
(g5
g8
tp713
Rp714
tp715
a(g1
(g5
g8
tp716
Rp717
g1
(g5
g8
tp718
Rp719
g1
(g5
g8
tp720
Rp721
tp722
a(g1
(g5
g8
tp723
Rp724
g1
(g5
g8
tp725
Rp726
g1
(g5
g8
tp727
Rp728
tp729
a(g1
(g5
g8
tp730
Rp731
g1
(g5
g8
tp732
Rp733
g1
(g5
g8
tp734
Rp735
tp736
a(g1
(g5
g8
tp737
Rp738
g1
(g5
g8
tp739
Rp740
g1
(g5
g8
tp741
Rp742
tp743
a(g1
(g5
g8
tp744
Rp745
g1
(g5
g8
tp746
Rp747
g1
(g5
g8
tp748
Rp749
tp750
a(g1
(g5
g8
tp751
Rp752
g1
(g5
g8
tp753
Rp754
g1
(g5
g8
tp755
Rp756
tp757
a(g1
(g5
g8
tp758
Rp759
g1
(g5
g8
tp760
Rp761
g1
(g5
g8
tp762
Rp763
tp764
a(g1
(g5
g8
tp765
Rp766
g1
(g5
g8
tp767
Rp768
g1
(g5
g8
tp769
Rp770
tp771
a(g1
(g5
g8
tp772
Rp773
g1
(g5
g8
tp774
Rp775
g1
(g5
g8
tp776
Rp777
tp778
a(g1
(g5
g8
tp779
Rp780
g1
(g5
g8
tp781
Rp782
g1
(g5
g8
tp783
Rp784
tp785
a(g1
(g5
g8
tp786
Rp787
g1
(g5
g8
tp788
Rp789
g1
(g5
g8
tp790
Rp791
tp792
a(g1
(g5
g8
tp793
Rp794
g1
(g5
g8
tp795
Rp796
g1
(g5
g8
tp797
Rp798
tp799
a(g1
(g5
g8
tp800
Rp801
g1
(g5
g8
tp802
Rp803
g1
(g5
g8
tp804
Rp805
tp806
a(g1
(g5
g8
tp807
Rp808
g1
(g5
g8
tp809
Rp810
g1
(g5
g8
tp811
Rp812
tp813
a(g1
(g5
g8
tp814
Rp815
g1
(g5
g8
tp816
Rp817
g1
(g5
g8
tp818
Rp819
tp820
a(g1
(g5
g8
tp821
Rp822
g1
(g5
g8
tp823
Rp824
g1
(g5
g8
tp825
Rp826
tp827
a(g1
(g5
g8
tp828
Rp829
g1
(g5
g8
tp830
Rp831
g1
(g5
g8
tp832
Rp833
tp834
a(g1
(g5
g8
tp835
Rp836
g1
(g5
g8
tp837
Rp838
g1
(g5
g8
tp839
Rp840
tp841
a(g1
(g5
g8
tp842
Rp843
g1
(g5
g8
tp844
Rp845
g1
(g5
g8
tp846
Rp847
tp848
a(g1
(g5
g8
tp849
Rp850
g1
(g5
g8
tp851
Rp852
g1
(g5
g8
tp853
Rp854
tp855
a(g1
(g5
g8
tp856
Rp857
g1
(g5
g8
tp858
Rp859
g1
(g5
g8
tp860
Rp861
tp862
a(g1
(g5
g8
tp863
Rp864
g1
(g5
g8
tp865
Rp866
g1
(g5
g8
tp867
Rp868
tp869
a(g1
(g5
g8
tp870
Rp871
g1
(g5
g8
tp872
Rp873
g1
(g5
g8
tp874
Rp875
tp876
a(g1
(g5
g8
tp877
Rp878
g1
(g5
g8
tp879
Rp880
g1
(g5
g8
tp881
Rp882
tp883
a(g1
(g5
g8
tp884
Rp885
g1
(g5
g8
tp886
Rp887
g1
(g5
g8
tp888
Rp889
tp890
a(g1
(g5
g8
tp891
Rp892
g1
(g5
g8
tp893
Rp894
g1
(g5
g8
tp895
Rp896
tp897
a(g1
(g5
g8
tp898
Rp899
g1
(g5
g8
tp900
Rp901
g1
(g5
g8
tp902
Rp903
tp904
a(g1
(g5
g8
tp905
Rp906
g1
(g5
g8
tp907
Rp908
g1
(g5
g8
tp909
Rp910
tp911
a(g1
(g5
g8
tp912
Rp913
g1
(g5
g8
tp914
Rp915
g1
(g5
g8
tp916
Rp917
tp918
a(g1
(g5
g8
tp919
Rp920
g1
(g5
g8
tp921
Rp922
g1
(g5
g8
tp923
Rp924
tp925
a(g1
(g5
g8
tp926
Rp927
g1
(g5
g8
tp928
Rp929
g1
(g5
g8
tp930
Rp931
tp932
a(g1
(g5
g8
tp933
Rp934
g1
(g5
g8
tp935
Rp936
g1
(g5
g8
tp937
Rp938
tp939
a(g1
(g5
g8
tp940
Rp941
g1
(g5
g8
tp942
Rp943
g1
(g5
g8
tp944
Rp945
tp946
a(g1
(g5
g8
tp947
Rp948
g1
(g5
g8
tp949
Rp950
g1
(g5
g8
tp951
Rp952
tp953
a(g1
(g5
g8
tp954
Rp955
g1
(g5
g8
tp956
Rp957
g1
(g5
g8
tp958
Rp959
tp960
a(g1
(g5
g8
tp961
Rp962
g1
(g5
g8
tp963
Rp964
g1
(g5
g8
tp965
Rp966
tp967
a(g1
(g5
g8
tp968
Rp969
g1
(g5
g8
tp970
Rp971
g1
(g5
g8
tp972
Rp973
tp974
a(g1
(g5
g8
tp975
Rp976
g1
(g5
g8
tp977
Rp978
g1
(g5
g8
tp979
Rp980
tp981
a(g1
(g5
g8
tp982
Rp983
g1
(g5
g8
tp984
Rp985
g1
(g5
g8
tp986
Rp987
tp988
a(g1
(g5
g8
tp989
Rp990
g1
(g5
g8
tp991
Rp992
g1
(g5
g8
tp993
Rp994
tp995
a(g1
(g5
g8
tp996
Rp997
g1
(g5
g8
tp998
Rp999
g1
(g5
g8
tp1000
Rp1001
tp1002
a(g1
(g5
g8
tp1003
Rp1004
g1
(g5
g8
tp1005
Rp1006
g1
(g5
g8
tp1007
Rp1008
tp1009
a(g1
(g5
g8
tp1010
Rp1011
g1
(g5
g8
tp1012
Rp1013
g1
(g5
g8
tp1014
Rp1015
tp1016
a(g1
(g5
g8
tp1017
Rp1018
g1
(g5
g8
tp1019
Rp1020
g1
(g5
g8
tp1021
Rp1022
tp1023
a(g1
(g5
g8
tp1024
Rp1025
g1
(g5
g8
tp1026
Rp1027
g1
(g5
g8
tp1028
Rp1029
tp1030
a(g1
(g5
g8
tp1031
Rp1032
g1
(g5
g8
tp1033
Rp1034
g1
(g5
g8
tp1035
Rp1036
tp1037
a(g1
(g5
g8
tp1038
Rp1039
g1
(g5
g8
tp1040
Rp1041
g1
(g5
g8
tp1042
Rp1043
tp1044
a(g1
(g5
g8
tp1045
Rp1046
g1
(g5
g8
tp1047
Rp1048
g1
(g5
g8
tp1049
Rp1050
tp1051
a(g1
(g5
g8
tp1052
Rp1053
g1
(g5
g8
tp1054
Rp1055
g1
(g5
g8
tp1056
Rp1057
tp1058
a(g1
(g5
g8
tp1059
Rp1060
g1
(g5
g8
tp1061
Rp1062
g1
(g5
g8
tp1063
Rp1064
tp1065
a(g1
(g5
g8
tp1066
Rp1067
g1
(g5
g8
tp1068
Rp1069
g1
(g5
g8
tp1070
Rp1071
tp1072
a(g1
(g5
g8
tp1073
Rp1074
g1
(g5
g8
tp1075
Rp1076
g1
(g5
g8
tp1077
Rp1078
tp1079
a(g1
(g5
g8
tp1080
Rp1081
g1
(g5
g8
tp1082
Rp1083
g1
(g5
g8
tp1084
Rp1085
tp1086
a(g1
(g5
g8
tp1087
Rp1088
g1
(g5
g8
tp1089
Rp1090
g1
(g5
g8
tp1091
Rp1092
tp1093
a(g1
(g5
g8
tp1094
Rp1095
g1
(g5
g8
tp1096
Rp1097
g1
(g5
g8
tp1098
Rp1099
tp1100
a(g1
(g5
g8
tp1101
Rp1102
g1
(g5
g8
tp1103
Rp1104
g1
(g5
g8
tp1105
Rp1106
tp1107
a(g1
(g5
g8
tp1108
Rp1109
g1
(g5
g8
tp1110
Rp1111
g1
(g5
g8
tp1112
Rp1113
tp1114
a(g1
(g5
g8
tp1115
Rp1116
g1
(g5
g8
tp1117
Rp1118
g1
(g5
g8
tp1119
Rp1120
tp1121
a(g1
(g5
g8
tp1122
Rp1123
g1
(g5
g8
tp1124
Rp1125
g1
(g5
g8
tp1126
Rp1127
tp1128
a(g1
(g5
g8
tp1129
Rp1130
g1
(g5
g8
tp1131
Rp1132
g1
(g5
g8
tp1133
Rp1134
tp1135
a(g1
(g5
g8
tp1136
Rp1137
g1
(g5
g8
tp1138
Rp1139
g1
(g5
g8
tp1140
Rp1141
tp1142
a(g1
(g5
g8
tp1143
Rp1144
g1
(g5
g8
tp1145
Rp1146
g1
(g5
g8
tp1147
Rp1148
tp1149
a(g1
(g5
g8
tp1150
Rp1151
g1
(g5
g8
tp1152
Rp1153
g1
(g5
g8
tp1154
Rp1155
tp1156
a(g1
(g5
g8
tp1157
Rp1158
g1
(g5
g8
tp1159
Rp1160
g1
(g5
g8
tp1161
Rp1162
tp1163
a(g1
(g5
g8
tp1164
Rp1165
g1
(g5
g8
tp1166
Rp1167
g1
(g5
g8
tp1168
Rp1169
tp1170
a(g1
(g5
g8
tp1171
Rp1172
g1
(g5
g8
tp1173
Rp1174
g1
(g5
g8
tp1175
Rp1176
tp1177
a(g1
(g5
g8
tp1178
Rp1179
g1
(g5
g8
tp1180
Rp1181
g1
(g5
g8
tp1182
Rp1183
tp1184
a(g1
(g5
g8
tp1185
Rp1186
g1
(g5
g8
tp1187
Rp1188
g1
(g5
g8
tp1189
Rp1190
tp1191
a(g1
(g5
g8
tp1192
Rp1193
g1
(g5
g8
tp1194
Rp1195
g1
(g5
g8
tp1196
Rp1197
tp1198
a(g1
(g5
g8
tp1199
Rp1200
g1
(g5
g8
tp1201
Rp1202
g1
(g5
g8
tp1203
Rp1204
tp1205
a(g1
(g5
g8
tp1206
Rp1207
g1
(g5
g8
tp1208
Rp1209
g1
(g5
g8
tp1210
Rp1211
tp1212
a(g1
(g5
g8
tp1213
Rp1214
g1
(g5
g8
tp1215
Rp1216
g1
(g5
g8
tp1217
Rp1218
tp1219
a(g1
(g5
g8
tp1220
Rp1221
g1
(g5
g8
tp1222
Rp1223
g1
(g5
g8
tp1224
Rp1225
tp1226
a(g1
(g5
g8
tp1227
Rp1228
g1
(g5
g8
tp1229
Rp1230
g1
(g5
g8
tp1231
Rp1232
tp1233
a(g1
(g5
g8
tp1234
Rp1235
g1
(g5
g8
tp1236
Rp1237
g1
(g5
g8
tp1238
Rp1239
tp1240
a(g1
(g5
g8
tp1241
Rp1242
g1
(g5
g8
tp1243
Rp1244
g1
(g5
g8
tp1245
Rp1246
tp1247
a(g1
(g5
g8
tp1248
Rp1249
g1
(g5
g8
tp1250
Rp1251
g1
(g5
g8
tp1252
Rp1253
tp1254
a(g1
(g5
g8
tp1255
Rp1256
g1
(g5
g8
tp1257
Rp1258
g1
(g5
g8
tp1259
Rp1260
tp1261
a(g1
(g5
g8
tp1262
Rp1263
g1
(g5
g8
tp1264
Rp1265
g1
(g5
g8
tp1266
Rp1267
tp1268
a(g1
(g5
g8
tp1269
Rp1270
g1
(g5
g8
tp1271
Rp1272
g1
(g5
g8
tp1273
Rp1274
tp1275
a(g1
(g5
g8
tp1276
Rp1277
g1
(g5
g8
tp1278
Rp1279
g1
(g5
g8
tp1280
Rp1281
tp1282
a(g1
(g5
g8
tp1283
Rp1284
g1
(g5
g8
tp1285
Rp1286
g1
(g5
g8
tp1287
Rp1288
tp1289
a(g1
(g5
g8
tp1290
Rp1291
g1
(g5
g8
tp1292
Rp1293
g1
(g5
g8
tp1294
Rp1295
tp1296
a(g1
(g5
g8
tp1297
Rp1298
g1
(g5
g8
tp1299
Rp1300
g1
(g5
g8
tp1301
Rp1302
tp1303
a(g1
(g5
g8
tp1304
Rp1305
g1
(g5
g8
tp1306
Rp1307
g1
(g5
g8
tp1308
Rp1309
tp1310
a(g1
(g5
g8
tp1311
Rp1312
g1
(g5
g8
tp1313
Rp1314
g1
(g5
g8
tp1315
Rp1316
tp1317
a(g1
(g5
g8
tp1318
Rp1319
g1
(g5
g8
tp1320
Rp1321
g1
(g5
g8
tp1322
Rp1323
tp1324
a(g1
(g5
g8
tp1325
Rp1326
g1
(g5
g8
tp1327
Rp1328
g1
(g5
g8
tp1329
Rp1330
tp1331
a(g1
(g5
g8
tp1332
Rp1333
g1
(g5
g8
tp1334
Rp1335
g1
(g5
g8
tp1336
Rp1337
tp1338
a(g1
(g5
g8
tp1339
Rp1340
g1
(g5
g8
tp1341
Rp1342
g1
(g5
g8
tp1343
Rp1344
tp1345
a(g1
(g5
g8
tp1346
Rp1347
g1
(g5
g8
tp1348
Rp1349
g1
(g5
g8
tp1350
Rp1351
tp1352
a(g1
(g5
g8
tp1353
Rp1354
g1
(g5
g8
tp1355
Rp1356
g1
(g5
g8
tp1357
Rp1358
tp1359
a(g1
(g5
g8
tp1360
Rp1361
g1
(g5
g8
tp1362
Rp1363
g1
(g5
g8
tp1364
Rp1365
tp1366
a(g1
(g5
g8
tp1367
Rp1368
g1
(g5
g8
tp1369
Rp1370
g1
(g5
g8
tp1371
Rp1372
tp1373
a(g1
(g5
g8
tp1374
Rp1375
g1
(g5
g8
tp1376
Rp1377
g1
(g5
g8
tp1378
Rp1379
tp1380
a(g1
(g5
g8
tp1381
Rp1382
g1
(g5
g8
tp1383
Rp1384
g1
(g5
g8
tp1385
Rp1386
tp1387
a(g1
(g5
g8
tp1388
Rp1389
g1
(g5
g8
tp1390
Rp1391
g1
(g5
g8
tp1392
Rp1393
tp1394
a(g1
(g5
g8
tp1395
Rp1396
g1
(g5
g8
tp1397
Rp1398
g1
(g5
g8
tp1399
Rp1400
tp1401
a(g1
(g5
g8
tp1402
Rp1403
g1
(g5
g8
tp1404
Rp1405
g1
(g5
g8
tp1406
Rp1407
tp1408
a(g1
(g5
g8
tp1409
Rp1410
g1
(g5
g8
tp1411
Rp1412
g1
(g5
g8
tp1413
Rp1414
tp1415
a(g1
(g5
g8
tp1416
Rp1417
g1
(g5
g8
tp1418
Rp1419
g1
(g5
g8
tp1420
Rp1421
tp1422
a(g1
(g5
g8
tp1423
Rp1424
g1
(g5
g8
tp1425
Rp1426
g1
(g5
g8
tp1427
Rp1428
tp1429
a(g1
(g5
g8
tp1430
Rp1431
g1
(g5
g8
tp1432
Rp1433
g1
(g5
g8
tp1434
Rp1435
tp1436
a(g1
(g5
g8
tp1437
Rp1438
g1
(g5
g8
tp1439
Rp1440
g1
(g5
g8
tp1441
Rp1442
tp1443
a(g1
(g5
g8
tp1444
Rp1445
g1
(g5
g8
tp1446
Rp1447
g1
(g5
g8
tp1448
Rp1449
tp1450
a(g1
(g5
g8
tp1451
Rp1452
g1
(g5
g8
tp1453
Rp1454
g1
(g5
g8
tp1455
Rp1456
tp1457
a(g1
(g5
g8
tp1458
Rp1459
g1
(g5
g8
tp1460
Rp1461
g1
(g5
g8
tp1462
Rp1463
tp1464
a(g1
(g5
g8
tp1465
Rp1466
g1
(g5
g8
tp1467
Rp1468
g1
(g5
g8
tp1469
Rp1470
tp1471
a(g1
(g5
g8
tp1472
Rp1473
g1
(g5
g8
tp1474
Rp1475
g1
(g5
g8
tp1476
Rp1477
tp1478
a(g1
(g5
g8
tp1479
Rp1480
g1
(g5
g8
tp1481
Rp1482
g1
(g5
g8
tp1483
Rp1484
tp1485
a(g1
(g5
g8
tp1486
Rp1487
g1
(g5
g8
tp1488
Rp1489
g1
(g5
g8
tp1490
Rp1491
tp1492
a(g1
(g5
g8
tp1493
Rp1494
g1
(g5
g8
tp1495
Rp1496
g1
(g5
g8
tp1497
Rp1498
tp1499
a(g1
(g5
g8
tp1500
Rp1501
g1
(g5
g8
tp1502
Rp1503
g1
(g5
g8
tp1504
Rp1505
tp1506
a(g1
(g5
g8
tp1507
Rp1508
g1
(g5
g8
tp1509
Rp1510
g1
(g5
g8
tp1511
Rp1512
tp1513
a(g1
(g5
g8
tp1514
Rp1515
g1
(g5
g8
tp1516
Rp1517
g1
(g5
g8
tp1518
Rp1519
tp1520
a(g1
(g5
g8
tp1521
Rp1522
g1
(g5
g8
tp1523
Rp1524
g1
(g5
g8
tp1525
Rp1526
tp1527
a(g1
(g5
g8
tp1528
Rp1529
g1
(g5
g8
tp1530
Rp1531
g1
(g5
g8
tp1532
Rp1533
tp1534
a(g1
(g5
g8
tp1535
Rp1536
g1
(g5
g8
tp1537
Rp1538
g1
(g5
g8
tp1539
Rp1540
tp1541
a(g1
(g5
g8
tp1542
Rp1543
g1
(g5
g8
tp1544
Rp1545
g1
(g5
g8
tp1546
Rp1547
tp1548
a(g1
(g5
g8
tp1549
Rp1550
g1
(g5
g8
tp1551
Rp1552
g1
(g5
g8
tp1553
Rp1554
tp1555
a(g1
(g5
g8
tp1556
Rp1557
g1
(g5
g8
tp1558
Rp1559
g1
(g5
g8
tp1560
Rp1561
tp1562
a(g1
(g5
g8
tp1563
Rp1564
g1
(g5
g8
tp1565
Rp1566
g1
(g5
g8
tp1567
Rp1568
tp1569
a(g1
(g5
g8
tp1570
Rp1571
g1
(g5
g8
tp1572
Rp1573
g1
(g5
g8
tp1574
Rp1575
tp1576
a(g1
(g5
g8
tp1577
Rp1578
g1
(g5
g8
tp1579
Rp1580
g1
(g5
g8
tp1581
Rp1582
tp1583
a(g1
(g5
g8
tp1584
Rp1585
g1
(g5
g8
tp1586
Rp1587
g1
(g5
g8
tp1588
Rp1589
tp1590
a(g1
(g5
g8
tp1591
Rp1592
g1
(g5
g8
tp1593
Rp1594
g1
(g5
g8
tp1595
Rp1596
tp1597
a(g1
(g5
g8
tp1598
Rp1599
g1
(g5
g8
tp1600
Rp1601
g1
(g5
g8
tp1602
Rp1603
tp1604
a(g1
(g5
g8
tp1605
Rp1606
g1
(g5
g8
tp1607
Rp1608
g1
(g5
g8
tp1609
Rp1610
tp1611
a(g1
(g5
g8
tp1612
Rp1613
g1
(g5
g8
tp1614
Rp1615
g1
(g5
g8
tp1616
Rp1617
tp1618
a(g1
(g5
g8
tp1619
Rp1620
g1
(g5
g8
tp1621
Rp1622
g1
(g5
g8
tp1623
Rp1624
tp1625
a(g1
(g5
g8
tp1626
Rp1627
g1
(g5
g8
tp1628
Rp1629
g1
(g5
g8
tp1630
Rp1631
tp1632
a(g1
(g5
g8
tp1633
Rp1634
g1
(g5
g8
tp1635
Rp1636
g1
(g5
g8
tp1637
Rp1638
tp1639
a(g1
(g5
g8
tp1640
Rp1641
g1
(g5
g8
tp1642
Rp1643
g1
(g5
g8
tp1644
Rp1645
tp1646
a(g1
(g5
g8
tp1647
Rp1648
g1
(g5
g8
tp1649
Rp1650
g1
(g5
g8
tp1651
Rp1652
tp1653
a(g1
(g5
g8
tp1654
Rp1655
g1
(g5
g8
tp1656
Rp1657
g1
(g5
g8
tp1658
Rp1659
tp1660
a(g1
(g5
g8
tp1661
Rp1662
g1
(g5
g8
tp1663
Rp1664
g1
(g5
g8
tp1665
Rp1666
tp1667
a(g1
(g5
g8
tp1668
Rp1669
g1
(g5
g8
tp1670
Rp1671
g1
(g5
g8
tp1672
Rp1673
tp1674
a(g1
(g5
g8
tp1675
Rp1676
g1
(g5
g8
tp1677
Rp1678
g1
(g5
g8
tp1679
Rp1680
tp1681
a(g1
(g5
g8
tp1682
Rp1683
g1
(g5
g8
tp1684
Rp1685
g1
(g5
g8
tp1686
Rp1687
tp1688
a(g1
(g5
g8
tp1689
Rp1690
g1
(g5
g8
tp1691
Rp1692
g1
(g5
g8
tp1693
Rp1694
tp1695
a(g1
(g5
g8
tp1696
Rp1697
g1
(g5
g8
tp1698
Rp1699
g1
(g5
g8
tp1700
Rp1701
tp1702
a(g1
(g5
g8
tp1703
Rp1704
g1
(g5
g8
tp1705
Rp1706
g1
(g5
g8
tp1707
Rp1708
tp1709
a(g1
(g5
g8
tp1710
Rp1711
g1
(g5
g8
tp1712
Rp1713
g1
(g5
g8
tp1714
Rp1715
tp1716
a(g1
(g5
g8
tp1717
Rp1718
g1
(g5
g8
tp1719
Rp1720
g1
(g5
g8
tp1721
Rp1722
tp1723
a(g1
(g5
g8
tp1724
Rp1725
g1
(g5
g8
tp1726
Rp1727
g1
(g5
g8
tp1728
Rp1729
tp1730
a(g1
(g5
g8
tp1731
Rp1732
g1
(g5
g8
tp1733
Rp1734
g1
(g5
g8
tp1735
Rp1736
tp1737
a(g1
(g5
g8
tp1738
Rp1739
g1
(g5
g8
tp1740
Rp1741
g1
(g5
g8
tp1742
Rp1743
tp1744
a(g1
(g5
g8
tp1745
Rp1746
g1
(g5
g8
tp1747
Rp1748
g1
(g5
g8
tp1749
Rp1750
tp1751
a(g1
(g5
g8
tp1752
Rp1753
g1
(g5
g8
tp1754
Rp1755
g1
(g5
g8
tp1756
Rp1757
tp1758
a(g1
(g5
g8
tp1759
Rp1760
g1
(g5
g8
tp1761
Rp1762
g1
(g5
g8
tp1763
Rp1764
tp1765
a(g1
(g5
g8
tp1766
Rp1767
g1
(g5
g8
tp1768
Rp1769
g1
(g5
g8
tp1770
Rp1771
tp1772
a(g1
(g5
g8
tp1773
Rp1774
g1
(g5
g8
tp1775
Rp1776
g1
(g5
g8
tp1777
Rp1778
tp1779
a(g1
(g5
g8
tp1780
Rp1781
g1
(g5
g8
tp1782
Rp1783
g1
(g5
g8
tp1784
Rp1785
tp1786
a(g1
(g5
g8
tp1787
Rp1788
g1
(g5
g8
tp1789
Rp1790
g1
(g5
g8
tp1791
Rp1792
tp1793
a(g1
(g5
g8
tp1794
Rp1795
g1
(g5
g8
tp1796
Rp1797
g1
(g5
g8
tp1798
Rp1799
tp1800
a(g1
(g5
g8
tp1801
Rp1802
g1
(g5
g8
tp1803
Rp1804
g1
(g5
g8
tp1805
Rp1806
tp1807
a(g1
(g5
g8
tp1808
Rp1809
g1
(g5
g8
tp1810
Rp1811
g1
(g5
g8
tp1812
Rp1813
tp1814
a(g1
(g5
g8
tp1815
Rp1816
g1
(g5
g8
tp1817
Rp1818
g1
(g5
g8
tp1819
Rp1820
tp1821
a(g1
(g5
g8
tp1822
Rp1823
g1
(g5
g8
tp1824
Rp1825
g1
(g5
g8
tp1826
Rp1827
tp1828
a(g1
(g5
g8
tp1829
Rp1830
g1
(g5
g8
tp1831
Rp1832
g1
(g5
g8
tp1833
Rp1834
tp1835
a(g1
(g5
g8
tp1836
Rp1837
g1
(g5
g8
tp1838
Rp1839
g1
(g5
g8
tp1840
Rp1841
tp1842
a(g1
(g5
g8
tp1843
Rp1844
g1
(g5
g8
tp1845
Rp1846
g1
(g5
g8
tp1847
Rp1848
tp1849
a(g1
(g5
g8
tp1850
Rp1851
g1
(g5
g8
tp1852
Rp1853
g1
(g5
g8
tp1854
Rp1855
tp1856
a(g1
(g5
g8
tp1857
Rp1858
g1
(g5
g8
tp1859
Rp1860
g1
(g5
g8
tp1861
Rp1862
tp1863
a(g1
(g5
g8
tp1864
Rp1865
g1
(g5
g8
tp1866
Rp1867
g1
(g5
g8
tp1868
Rp1869
tp1870
a(g1
(g5
g8
tp1871
Rp1872
g1
(g5
g8
tp1873
Rp1874
g1
(g5
g8
tp1875
Rp1876
tp1877
a(g1
(g5
g8
tp1878
Rp1879
g1
(g5
g8
tp1880
Rp1881
g1
(g5
g8
tp1882
Rp1883
tp1884
a(g1
(g5
g8
tp1885
Rp1886
g1
(g5
g8
tp1887
Rp1888
g1
(g5
g8
tp1889
Rp1890
tp1891
a(g1
(g5
g8
tp1892
Rp1893
g1
(g5
g8
tp1894
Rp1895
g1
(g5
g8
tp1896
Rp1897
tp1898
a(g1
(g5
g8
tp1899
Rp1900
g1
(g5
g8
tp1901
Rp1902
g1
(g5
g8
tp1903
Rp1904
tp1905
a(g1
(g5
g8
tp1906
Rp1907
g1
(g5
g8
tp1908
Rp1909
g1
(g5
g8
tp1910
Rp1911
tp1912
a(g1
(g5
g8
tp1913
Rp1914
g1
(g5
g8
tp1915
Rp1916
g1
(g5
g8
tp1917
Rp1918
tp1919
a(g1
(g5
g8
tp1920
Rp1921
g1
(g5
g8
tp1922
Rp1923
g1
(g5
g8
tp1924
Rp1925
tp1926
a(g1
(g5
g8
tp1927
Rp1928
g1
(g5
g8
tp1929
Rp1930
g1
(g5
g8
tp1931
Rp1932
tp1933
a(g1
(g5
g8
tp1934
Rp1935
g1
(g5
g8
tp1936
Rp1937
g1
(g5
g8
tp1938
Rp1939
tp1940
a(g1
(g5
g8
tp1941
Rp1942
g1
(g5
g8
tp1943
Rp1944
g1
(g5
g8
tp1945
Rp1946
tp1947
a(g1
(g5
g8
tp1948
Rp1949
g1
(g5
g8
tp1950
Rp1951
g1
(g5
g8
tp1952
Rp1953
tp1954
a(g1
(g5
g8
tp1955
Rp1956
g1
(g5
g8
tp1957
Rp1958
g1
(g5
g8
tp1959
Rp1960
tp1961
a(g1
(g5
g8
tp1962
Rp1963
g1
(g5
g8
tp1964
Rp1965
g1
(g5
g8
tp1966
Rp1967
tp1968
a(g1
(g5
g8
tp1969
Rp1970
g1
(g5
g8
tp1971
Rp1972
g1
(g5
g8
tp1973
Rp1974
tp1975
a(g1
(g5
g8
tp1976
Rp1977
g1
(g5
g8
tp1978
Rp1979
g1
(g5
g8
tp1980
Rp1981
tp1982
a(g1
(g5
g8
tp1983
Rp1984
g1
(g5
g8
tp1985
Rp1986
g1
(g5
g8
tp1987
Rp1988
tp1989
a(g1
(g5
g8
tp1990
Rp1991
g1
(g5
g8
tp1992
Rp1993
g1
(g5
g8
tp1994
Rp1995
tp1996
a(g1
(g5
g8
tp1997
Rp1998
g1
(g5
g8
tp1999
Rp2000
g1
(g5
g8
tp2001
Rp2002
tp2003
a(g1
(g5
g8
tp2004
Rp2005
g1
(g5
g8
tp2006
Rp2007
g1
(g5
g8
tp2008
Rp2009
tp2010
a(g1
(g5
g8
tp2011
Rp2012
g1
(g5
g8
tp2013
Rp2014
g1
(g5
g8
tp2015
Rp2016
tp2017
a(g1
(g5
g8
tp2018
Rp2019
g1
(g5
g8
tp2020
Rp2021
g1
(g5
g8
tp2022
Rp2023
tp2024
a(g1
(g5
g8
tp2025
Rp2026
g1
(g5
g8
tp2027
Rp2028
g1
(g5
g8
tp2029
Rp2030
tp2031
a(g1
(g5
g8
tp2032
Rp2033
g1
(g5
g8
tp2034
Rp2035
g1
(g5
g8
tp2036
Rp2037
tp2038
a(g1
(g5
g8
tp2039
Rp2040
g1
(g5
g8
tp2041
Rp2042
g1
(g5
g8
tp2043
Rp2044
tp2045
a(g1
(g5
g8
tp2046
Rp2047
g1
(g5
g8
tp2048
Rp2049
g1
(g5
g8
tp2050
Rp2051
tp2052
a(g1
(g5
g8
tp2053
Rp2054
g1
(g5
g8
tp2055
Rp2056
g1
(g5
g8
tp2057
Rp2058
tp2059
a(g1
(g5
g8
tp2060
Rp2061
g1
(g5
g8
tp2062
Rp2063
g1
(g5
g8
tp2064
Rp2065
tp2066
a(g1
(g5
g8
tp2067
Rp2068
g1
(g5
g8
tp2069
Rp2070
g1
(g5
g8
tp2071
Rp2072
tp2073
a(g1
(g5
g8
tp2074
Rp2075
g1
(g5
g8
tp2076
Rp2077
g1
(g5
g8
tp2078
Rp2079
tp2080
a(g1
(g5
g8
tp2081
Rp2082
g1
(g5
g8
tp2083
Rp2084
g1
(g5
g8
tp2085
Rp2086
tp2087
a(g1
(g5
g8
tp2088
Rp2089
g1
(g5
g8
tp2090
Rp2091
g1
(g5
g8
tp2092
Rp2093
tp2094
a(g1
(g5
g8
tp2095
Rp2096
g1
(g5
g8
tp2097
Rp2098
g1
(g5
g8
tp2099
Rp2100
tp2101
a(g1
(g5
g8
tp2102
Rp2103
g1
(g5
g8
tp2104
Rp2105
g1
(g5
g8
tp2106
Rp2107
tp2108
a(g1
(g5
g8
tp2109
Rp2110
g1
(g5
g8
tp2111
Rp2112
g1
(g5
g8
tp2113
Rp2114
tp2115
a(g1
(g5
g8
tp2116
Rp2117
g1
(g5
g8
tp2118
Rp2119
g1
(g5
g8
tp2120
Rp2121
tp2122
a(g1
(g5
g8
tp2123
Rp2124
g1
(g5
g8
tp2125
Rp2126
g1
(g5
g8
tp2127
Rp2128
tp2129
a(g1
(g5
g8
tp2130
Rp2131
g1
(g5
g8
tp2132
Rp2133
g1
(g5
g8
tp2134
Rp2135
tp2136
a(g1
(g5
g8
tp2137
Rp2138
g1
(g5
g8
tp2139
Rp2140
g1
(g5
g8
tp2141
Rp2142
tp2143
a(g1
(g5
g8
tp2144
Rp2145
g1
(g5
g8
tp2146
Rp2147
g1
(g5
g8
tp2148
Rp2149
tp2150
a(g1
(g5
g8
tp2151
Rp2152
g1
(g5
g8
tp2153
Rp2154
g1
(g5
g8
tp2155
Rp2156
tp2157
a(g1
(g5
g8
tp2158
Rp2159
g1
(g5
g8
tp2160
Rp2161
g1
(g5
g8
tp2162
Rp2163
tp2164
a(g1
(g5
g8
tp2165
Rp2166
g1
(g5
g8
tp2167
Rp2168
g1
(g5
g8
tp2169
Rp2170
tp2171
a(g1
(g5
g8
tp2172
Rp2173
g1
(g5
g8
tp2174
Rp2175
g1
(g5
g8
tp2176
Rp2177
tp2178
a(g1
(g5
g8
tp2179
Rp2180
g1
(g5
g8
tp2181
Rp2182
g1
(g5
g8
tp2183
Rp2184
tp2185
a(g1
(g5
g8
tp2186
Rp2187
g1
(g5
g8
tp2188
Rp2189
g1
(g5
g8
tp2190
Rp2191
tp2192
a(g1
(g5
g8
tp2193
Rp2194
g1
(g5
g8
tp2195
Rp2196
g1
(g5
g8
tp2197
Rp2198
tp2199
a(g1
(g5
g8
tp2200
Rp2201
g1
(g5
g8
tp2202
Rp2203
g1
(g5
g8
tp2204
Rp2205
tp2206
a(g1
(g5
g8
tp2207
Rp2208
g1
(g5
g8
tp2209
Rp2210
g1
(g5
g8
tp2211
Rp2212
tp2213
a(g1
(g5
S'\xff'
p2214
tp2215
Rp2216
g1
(g5
S'!'
p2217
tp2218
Rp2219
g1
(g5
g2217
tp2220
Rp2221
tp2222
a(g1
(g5
g8
tp2223
Rp2224
g1
(g5
g8
tp2225
Rp2226
g1
(g5
g8
tp2227
Rp2228
tp2229
a(g1
(g5
g8
tp2230
Rp2231
g1
(g5
g8
tp2232
Rp2233
g1
(g5
g8
tp2234
Rp2235
tp2236
a(g1
(g5
g8
tp2237
Rp2238
g1
(g5
g8
tp2239
Rp2240
g1
(g5
g8
tp2241
Rp2242
tp2243
a(g1
(g5
g8
tp2244
Rp2245
g1
(g5
g8
tp2246
Rp2247
g1
(g5
g8
tp2248
Rp2249
tp2250
a(g1
(g5
g8
tp2251
Rp2252
g1
(g5
g8
tp2253
Rp2254
g1
(g5
g8
tp2255
Rp2256
tp2257
a(g1
(g5
g8
tp2258
Rp2259
g1
(g5
g8
tp2260
Rp2261
g1
(g5
g8
tp2262
Rp2263
tp2264
a(g1
(g5
g8
tp2265
Rp2266
g1
(g5
g8
tp2267
Rp2268
g1
(g5
g8
tp2269
Rp2270
tp2271
a(g1
(g5
g8
tp2272
Rp2273
g1
(g5
g8
tp2274
Rp2275
g1
(g5
g8
tp2276
Rp2277
tp2278
a(g1
(g5
g8
tp2279
Rp2280
g1
(g5
g8
tp2281
Rp2282
g1
(g5
g8
tp2283
Rp2284
tp2285
a(g1
(g5
g8
tp2286
Rp2287
g1
(g5
g8
tp2288
Rp2289
g1
(g5
g8
tp2290
Rp2291
tp2292
a(g1
(g5
g8
tp2293
Rp2294
g1
(g5
g8
tp2295
Rp2296
g1
(g5
g8
tp2297
Rp2298
tp2299
a(g1
(g5
g8
tp2300
Rp2301
g1
(g5
g8
tp2302
Rp2303
g1
(g5
g8
tp2304
Rp2305
tp2306
a(g1
(g5
g8
tp2307
Rp2308
g1
(g5
g8
tp2309
Rp2310
g1
(g5
g8
tp2311
Rp2312
tp2313
a(g1
(g5
g8
tp2314
Rp2315
g1
(g5
g8
tp2316
Rp2317
g1
(g5
g8
tp2318
Rp2319
tp2320
a(g1
(g5
g8
tp2321
Rp2322
g1
(g5
g8
tp2323
Rp2324
g1
(g5
g8
tp2325
Rp2326
tp2327
a(g1
(g5
g8
tp2328
Rp2329
g1
(g5
g8
tp2330
Rp2331
g1
(g5
g8
tp2332
Rp2333
tp2334
a(g1
(g5
g8
tp2335
Rp2336
g1
(g5
g8
tp2337
Rp2338
g1
(g5
g8
tp2339
Rp2340
tp2341
a(g1
(g5
g8
tp2342
Rp2343
g1
(g5
g8
tp2344
Rp2345
g1
(g5
g8
tp2346
Rp2347
tp2348
a(g1
(g5
g8
tp2349
Rp2350
g1
(g5
g8
tp2351
Rp2352
g1
(g5
g8
tp2353
Rp2354
tp2355
a(g1
(g5
g8
tp2356
Rp2357
g1
(g5
g8
tp2358
Rp2359
g1
(g5
g8
tp2360
Rp2361
tp2362
a(g1
(g5
g8
tp2363
Rp2364
g1
(g5
g8
tp2365
Rp2366
g1
(g5
g8
tp2367
Rp2368
tp2369
a(g1
(g5
g8
tp2370
Rp2371
g1
(g5
g8
tp2372
Rp2373
g1
(g5
g8
tp2374
Rp2375
tp2376
a(g1
(g5
g8
tp2377
Rp2378
g1
(g5
g8
tp2379
Rp2380
g1
(g5
g8
tp2381
Rp2382
tp2383
a(g1
(g5
g8
tp2384
Rp2385
g1
(g5
g8
tp2386
Rp2387
g1
(g5
g8
tp2388
Rp2389
tp2390
a(g1
(g5
g8
tp2391
Rp2392
g1
(g5
g8
tp2393
Rp2394
g1
(g5
g8
tp2395
Rp2396
tp2397
a(g1
(g5
g8
tp2398
Rp2399
g1
(g5
g8
tp2400
Rp2401
g1
(g5
g8
tp2402
Rp2403
tp2404
a(g1
(g5
g8
tp2405
Rp2406
g1
(g5
g8
tp2407
Rp2408
g1
(g5
g8
tp2409
Rp2410
tp2411
a(g1
(g5
g8
tp2412
Rp2413
g1
(g5
g8
tp2414
Rp2415
g1
(g5
g8
tp2416
Rp2417
tp2418
a(g1
(g5
g8
tp2419
Rp2420
g1
(g5
g8
tp2421
Rp2422
g1
(g5
g8
tp2423
Rp2424
tp2425
a(g1
(g5
g8
tp2426
Rp2427
g1
(g5
g8
tp2428
Rp2429
g1
(g5
g8
tp2430
Rp2431
tp2432
a(g1
(g5
g8
tp2433
Rp2434
g1
(g5
g8
tp2435
Rp2436
g1
(g5
g8
tp2437
Rp2438
tp2439
a(g1
(g5
g8
tp2440
Rp2441
g1
(g5
g8
tp2442
Rp2443
g1
(g5
g8
tp2444
Rp2445
tp2446
a(g1
(g5
g8
tp2447
Rp2448
g1
(g5
g8
tp2449
Rp2450
g1
(g5
g8
tp2451
Rp2452
tp2453
a(g1
(g5
g8
tp2454
Rp2455
g1
(g5
g8
tp2456
Rp2457
g1
(g5
g8
tp2458
Rp2459
tp2460
a(g1
(g5
g8
tp2461
Rp2462
g1
(g5
g8
tp2463
Rp2464
g1
(g5
g8
tp2465
Rp2466
tp2467
a(g1
(g5
g8
tp2468
Rp2469
g1
(g5
g8
tp2470
Rp2471
g1
(g5
g8
tp2472
Rp2473
tp2474
a(g1
(g5
g8
tp2475
Rp2476
g1
(g5
g8
tp2477
Rp2478
g1
(g5
g8
tp2479
Rp2480
tp2481
a(g1
(g5
g8
tp2482
Rp2483
g1
(g5
g8
tp2484
Rp2485
g1
(g5
g8
tp2486
Rp2487
tp2488
a(g1
(g5
g8
tp2489
Rp2490
g1
(g5
g8
tp2491
Rp2492
g1
(g5
g8
tp2493
Rp2494
tp2495
a(g1
(g5
g8
tp2496
Rp2497
g1
(g5
g8
tp2498
Rp2499
g1
(g5
g8
tp2500
Rp2501
tp2502
a(g1
(g5
g8
tp2503
Rp2504
g1
(g5
g8
tp2505
Rp2506
g1
(g5
g8
tp2507
Rp2508
tp2509
a(g1
(g5
g8
tp2510
Rp2511
g1
(g5
g8
tp2512
Rp2513
g1
(g5
g8
tp2514
Rp2515
tp2516
a(g1
(g5
g8
tp2517
Rp2518
g1
(g5
g8
tp2519
Rp2520
g1
(g5
g8
tp2521
Rp2522
tp2523
a(g1
(g5
g8
tp2524
Rp2525
g1
(g5
g8
tp2526
Rp2527
g1
(g5
g8
tp2528
Rp2529
tp2530
a(g1
(g5
g2214
tp2531
Rp2532
g1
(g5
g2217
tp2533
Rp2534
g1
(g5
g2217
tp2535
Rp2536
tp2537
a(g1
(g5
g8
tp2538
Rp2539
g1
(g5
g8
tp2540
Rp2541
g1
(g5
g8
tp2542
Rp2543
tp2544
a(g1
(g5
g8
tp2545
Rp2546
g1
(g5
g8
tp2547
Rp2548
g1
(g5
g8
tp2549
Rp2550
tp2551
a(g1
(g5
g8
tp2552
Rp2553
g1
(g5
g8
tp2554
Rp2555
g1
(g5
g8
tp2556
Rp2557
tp2558
a(g1
(g5
g8
tp2559
Rp2560
g1
(g5
g8
tp2561
Rp2562
g1
(g5
g8
tp2563
Rp2564
tp2565
a(g1
(g5
g8
tp2566
Rp2567
g1
(g5
g8
tp2568
Rp2569
g1
(g5
g8
tp2570
Rp2571
tp2572
a(g1
(g5
g8
tp2573
Rp2574
g1
(g5
g8
tp2575
Rp2576
g1
(g5
g8
tp2577
Rp2578
tp2579
a(g1
(g5
g8
tp2580
Rp2581
g1
(g5
g8
tp2582
Rp2583
g1
(g5
g8
tp2584
Rp2585
tp2586
a(g1
(g5
g8
tp2587
Rp2588
g1
(g5
g8
tp2589
Rp2590
g1
(g5
g8
tp2591
Rp2592
tp2593
a(g1
(g5
g8
tp2594
Rp2595
g1
(g5
g8
tp2596
Rp2597
g1
(g5
g8
tp2598
Rp2599
tp2600
a(g1
(g5
g8
tp2601
Rp2602
g1
(g5
g8
tp2603
Rp2604
g1
(g5
g8
tp2605
Rp2606
tp2607
a(g1
(g5
g8
tp2608
Rp2609
g1
(g5
g8
tp2610
Rp2611
g1
(g5
g8
tp2612
Rp2613
tp2614
a(g1
(g5
g8
tp2615
Rp2616
g1
(g5
g8
tp2617
Rp2618
g1
(g5
g8
tp2619
Rp2620
tp2621
a(g1
(g5
g8
tp2622
Rp2623
g1
(g5
g8
tp2624
Rp2625
g1
(g5
g8
tp2626
Rp2627
tp2628
a(g1
(g5
g8
tp2629
Rp2630
g1
(g5
g8
tp2631
Rp2632
g1
(g5
g8
tp2633
Rp2634
tp2635
a(g1
(g5
g8
tp2636
Rp2637
g1
(g5
g8
tp2638
Rp2639
g1
(g5
g8
tp2640
Rp2641
tp2642
a(g1
(g5
g8
tp2643
Rp2644
g1
(g5
g8
tp2645
Rp2646
g1
(g5
g8
tp2647
Rp2648
tp2649
a(g1
(g5
g8
tp2650
Rp2651
g1
(g5
g8
tp2652
Rp2653
g1
(g5
g8
tp2654
Rp2655
tp2656
a(g1
(g5
g8
tp2657
Rp2658
g1
(g5
g8
tp2659
Rp2660
g1
(g5
g8
tp2661
Rp2662
tp2663
a(g1
(g5
g8
tp2664
Rp2665
g1
(g5
g8
tp2666
Rp2667
g1
(g5
g8
tp2668
Rp2669
tp2670
a(g1
(g5
g8
tp2671
Rp2672
g1
(g5
g8
tp2673
Rp2674
g1
(g5
g8
tp2675
Rp2676
tp2677
a(g1
(g5
g8
tp2678
Rp2679
g1
(g5
g8
tp2680
Rp2681
g1
(g5
g8
tp2682
Rp2683
tp2684
a(g1
(g5
g8
tp2685
Rp2686
g1
(g5
g8
tp2687
Rp2688
g1
(g5
g8
tp2689
Rp2690
tp2691
a(g1
(g5
g8
tp2692
Rp2693
g1
(g5
g8
tp2694
Rp2695
g1
(g5
g8
tp2696
Rp2697
tp2698
a(g1
(g5
g8
tp2699
Rp2700
g1
(g5
g8
tp2701
Rp2702
g1
(g5
g8
tp2703
Rp2704
tp2705
a(g1
(g5
g8
tp2706
Rp2707
g1
(g5
g8
tp2708
Rp2709
g1
(g5
g8
tp2710
Rp2711
tp2712
a(g1
(g5
g8
tp2713
Rp2714
g1
(g5
g8
tp2715
Rp2716
g1
(g5
g8
tp2717
Rp2718
tp2719
a(g1
(g5
g8
tp2720
Rp2721
g1
(g5
g8
tp2722
Rp2723
g1
(g5
g8
tp2724
Rp2725
tp2726
a(g1
(g5
g8
tp2727
Rp2728
g1
(g5
g8
tp2729
Rp2730
g1
(g5
g8
tp2731
Rp2732
tp2733
a(g1
(g5
g8
tp2734
Rp2735
g1
(g5
g8
tp2736
Rp2737
g1
(g5
g8
tp2738
Rp2739
tp2740
a(g1
(g5
g8
tp2741
Rp2742
g1
(g5
g8
tp2743
Rp2744
g1
(g5
g8
tp2745
Rp2746
tp2747
a(g1
(g5
g8
tp2748
Rp2749
g1
(g5
g8
tp2750
Rp2751
g1
(g5
g8
tp2752
Rp2753
tp2754
a(g1
(g5
g8
tp2755
Rp2756
g1
(g5
g8
tp2757
Rp2758
g1
(g5
g8
tp2759
Rp2760
tp2761
a(g1
(g5
g8
tp2762
Rp2763
g1
(g5
g8
tp2764
Rp2765
g1
(g5
g8
tp2766
Rp2767
tp2768
a(g1
(g5
g8
tp2769
Rp2770
g1
(g5
g8
tp2771
Rp2772
g1
(g5
g8
tp2773
Rp2774
tp2775
a(g1
(g5
g8
tp2776
Rp2777
g1
(g5
g8
tp2778
Rp2779
g1
(g5
g8
tp2780
Rp2781
tp2782
a(g1
(g5
g8
tp2783
Rp2784
g1
(g5
g8
tp2785
Rp2786
g1
(g5
g8
tp2787
Rp2788
tp2789
a(g1
(g5
g8
tp2790
Rp2791
g1
(g5
g8
tp2792
Rp2793
g1
(g5
g8
tp2794
Rp2795
tp2796
a(g1
(g5
g8
tp2797
Rp2798
g1
(g5
g8
tp2799
Rp2800
g1
(g5
g8
tp2801
Rp2802
tp2803
a(g1
(g5
g8
tp2804
Rp2805
g1
(g5
g8
tp2806
Rp2807
g1
(g5
g8
tp2808
Rp2809
tp2810
a(g1
(g5
g8
tp2811
Rp2812
g1
(g5
g8
tp2813
Rp2814
g1
(g5
g8
tp2815
Rp2816
tp2817
a(g1
(g5
g8
tp2818
Rp2819
g1
(g5
g8
tp2820
Rp2821
g1
(g5
g8
tp2822
Rp2823
tp2824
a(g1
(g5
g8
tp2825
Rp2826
g1
(g5
g8
tp2827
Rp2828
g1
(g5
g8
tp2829
Rp2830
tp2831
a(g1
(g5
g8
tp2832
Rp2833
g1
(g5
g8
tp2834
Rp2835
g1
(g5
g8
tp2836
Rp2837
tp2838
a(g1
(g5
g8
tp2839
Rp2840
g1
(g5
g8
tp2841
Rp2842
g1
(g5
g8
tp2843
Rp2844
tp2845
a(g1
(g5
g2214
tp2846
Rp2847
g1
(g5
g2217
tp2848
Rp2849
g1
(g5
g2217
tp2850
Rp2851
tp2852
a(g1
(g5
g8
tp2853
Rp2854
g1
(g5
g8
tp2855
Rp2856
g1
(g5
g8
tp2857
Rp2858
tp2859
a(g1
(g5
g8
tp2860
Rp2861
g1
(g5
g8
tp2862
Rp2863
g1
(g5
g8
tp2864
Rp2865
tp2866
a(g1
(g5
g8
tp2867
Rp2868
g1
(g5
g8
tp2869
Rp2870
g1
(g5
g8
tp2871
Rp2872
tp2873
a(g1
(g5
g8
tp2874
Rp2875
g1
(g5
g8
tp2876
Rp2877
g1
(g5
g8
tp2878
Rp2879
tp2880
a(g1
(g5
g8
tp2881
Rp2882
g1
(g5
g8
tp2883
Rp2884
g1
(g5
g8
tp2885
Rp2886
tp2887
a(g1
(g5
g8
tp2888
Rp2889
g1
(g5
g8
tp2890
Rp2891
g1
(g5
g8
tp2892
Rp2893
tp2894
a(g1
(g5
g8
tp2895
Rp2896
g1
(g5
g8
tp2897
Rp2898
g1
(g5
g8
tp2899
Rp2900
tp2901
a(g1
(g5
g8
tp2902
Rp2903
g1
(g5
g8
tp2904
Rp2905
g1
(g5
g8
tp2906
Rp2907
tp2908
a(g1
(g5
g8
tp2909
Rp2910
g1
(g5
g8
tp2911
Rp2912
g1
(g5
g8
tp2913
Rp2914
tp2915
a(g1
(g5
g8
tp2916
Rp2917
g1
(g5
g8
tp2918
Rp2919
g1
(g5
g8
tp2920
Rp2921
tp2922
a(g1
(g5
g8
tp2923
Rp2924
g1
(g5
g8
tp2925
Rp2926
g1
(g5
g8
tp2927
Rp2928
tp2929
a(g1
(g5
g8
tp2930
Rp2931
g1
(g5
g8
tp2932
Rp2933
g1
(g5
g8
tp2934
Rp2935
tp2936
a(g1
(g5
g8
tp2937
Rp2938
g1
(g5
g8
tp2939
Rp2940
g1
(g5
g8
tp2941
Rp2942
tp2943
a(g1
(g5
g8
tp2944
Rp2945
g1
(g5
g8
tp2946
Rp2947
g1
(g5
g8
tp2948
Rp2949
tp2950
a(g1
(g5
g8
tp2951
Rp2952
g1
(g5
g8
tp2953
Rp2954
g1
(g5
g8
tp2955
Rp2956
tp2957
a(g1
(g5
g8
tp2958
Rp2959
g1
(g5
g8
tp2960
Rp2961
g1
(g5
g8
tp2962
Rp2963
tp2964
a(g1
(g5
g8
tp2965
Rp2966
g1
(g5
g8
tp2967
Rp2968
g1
(g5
g8
tp2969
Rp2970
tp2971
a(g1
(g5
g8
tp2972
Rp2973
g1
(g5
g8
tp2974
Rp2975
g1
(g5
g8
tp2976
Rp2977
tp2978
a(g1
(g5
g8
tp2979
Rp2980
g1
(g5
g8
tp2981
Rp2982
g1
(g5
g8
tp2983
Rp2984
tp2985
a(g1
(g5
g8
tp2986
Rp2987
g1
(g5
g8
tp2988
Rp2989
g1
(g5
g8
tp2990
Rp2991
tp2992
a(g1
(g5
g8
tp2993
Rp2994
g1
(g5
g8
tp2995
Rp2996
g1
(g5
g8
tp2997
Rp2998
tp2999
a(g1
(g5
g8
tp3000
Rp3001
g1
(g5
g8
tp3002
Rp3003
g1
(g5
g8
tp3004
Rp3005
tp3006
a(g1
(g5
g8
tp3007
Rp3008
g1
(g5
g8
tp3009
Rp3010
g1
(g5
g8
tp3011
Rp3012
tp3013
a(g1
(g5
g8
tp3014
Rp3015
g1
(g5
g8
tp3016
Rp3017
g1
(g5
g8
tp3018
Rp3019
tp3020
a(g1
(g5
g8
tp3021
Rp3022
g1
(g5
g8
tp3023
Rp3024
g1
(g5
g8
tp3025
Rp3026
tp3027
a(g1
(g5
g8
tp3028
Rp3029
g1
(g5
g8
tp3030
Rp3031
g1
(g5
g8
tp3032
Rp3033
tp3034
a(g1
(g5
g8
tp3035
Rp3036
g1
(g5
g8
tp3037
Rp3038
g1
(g5
g8
tp3039
Rp3040
tp3041
a(g1
(g5
g8
tp3042
Rp3043
g1
(g5
g8
tp3044
Rp3045
g1
(g5
g8
tp3046
Rp3047
tp3048
a(g1
(g5
g8
tp3049
Rp3050
g1
(g5
g8
tp3051
Rp3052
g1
(g5
g8
tp3053
Rp3054
tp3055
a(g1
(g5
g8
tp3056
Rp3057
g1
(g5
g8
tp3058
Rp3059
g1
(g5
g8
tp3060
Rp3061
tp3062
a(g1
(g5
g8
tp3063
Rp3064
g1
(g5
g8
tp3065
Rp3066
g1
(g5
g8
tp3067
Rp3068
tp3069
a(g1
(g5
g8
tp3070
Rp3071
g1
(g5
g8
tp3072
Rp3073
g1
(g5
g8
tp3074
Rp3075
tp3076
a(g1
(g5
g8
tp3077
Rp3078
g1
(g5
g8
tp3079
Rp3080
g1
(g5
g8
tp3081
Rp3082
tp3083
a(g1
(g5
g8
tp3084
Rp3085
g1
(g5
g8
tp3086
Rp3087
g1
(g5
g8
tp3088
Rp3089
tp3090
a(g1
(g5
g8
tp3091
Rp3092
g1
(g5
g8
tp3093
Rp3094
g1
(g5
g8
tp3095
Rp3096
tp3097
a(g1
(g5
g8
tp3098
Rp3099
g1
(g5
g8
tp3100
Rp3101
g1
(g5
g8
tp3102
Rp3103
tp3104
a(g1
(g5
g8
tp3105
Rp3106
g1
(g5
g8
tp3107
Rp3108
g1
(g5
g8
tp3109
Rp3110
tp3111
a(g1
(g5
g8
tp3112
Rp3113
g1
(g5
g8
tp3114
Rp3115
g1
(g5
g8
tp3116
Rp3117
tp3118
a(g1
(g5
g8
tp3119
Rp3120
g1
(g5
g8
tp3121
Rp3122
g1
(g5
g8
tp3123
Rp3124
tp3125
a(g1
(g5
g8
tp3126
Rp3127
g1
(g5
g8
tp3128
Rp3129
g1
(g5
g8
tp3130
Rp3131
tp3132
a(g1
(g5
g8
tp3133
Rp3134
g1
(g5
g8
tp3135
Rp3136
g1
(g5
g8
tp3137
Rp3138
tp3139
a(g1
(g5
g8
tp3140
Rp3141
g1
(g5
g8
tp3142
Rp3143
g1
(g5
g8
tp3144
Rp3145
tp3146
a(g1
(g5
g8
tp3147
Rp3148
g1
(g5
g8
tp3149
Rp3150
g1
(g5
g8
tp3151
Rp3152
tp3153
a(g1
(g5
g8
tp3154
Rp3155
g1
(g5
g8
tp3156
Rp3157
g1
(g5
g8
tp3158
Rp3159
tp3160
a(g1
(g5
g2214
tp3161
Rp3162
g1
(g5
g2217
tp3163
Rp3164
g1
(g5
g2217
tp3165
Rp3166
tp3167
a(g1
(g5
g8
tp3168
Rp3169
g1
(g5
g8
tp3170
Rp3171
g1
(g5
g8
tp3172
Rp3173
tp3174
a(g1
(g5
g8
tp3175
Rp3176
g1
(g5
g8
tp3177
Rp3178
g1
(g5
g8
tp3179
Rp3180
tp3181
a(g1
(g5
g8
tp3182
Rp3183
g1
(g5
g8
tp3184
Rp3185
g1
(g5
g8
tp3186
Rp3187
tp3188
a(g1
(g5
g8
tp3189
Rp3190
g1
(g5
g8
tp3191
Rp3192
g1
(g5
g8
tp3193
Rp3194
tp3195
a(g1
(g5
g8
tp3196
Rp3197
g1
(g5
g8
tp3198
Rp3199
g1
(g5
g8
tp3200
Rp3201
tp3202
a(g1
(g5
g8
tp3203
Rp3204
g1
(g5
g8
tp3205
Rp3206
g1
(g5
g8
tp3207
Rp3208
tp3209
a(g1
(g5
g8
tp3210
Rp3211
g1
(g5
g8
tp3212
Rp3213
g1
(g5
g8
tp3214
Rp3215
tp3216
a(g1
(g5
g8
tp3217
Rp3218
g1
(g5
g8
tp3219
Rp3220
g1
(g5
g8
tp3221
Rp3222
tp3223
a(g1
(g5
g8
tp3224
Rp3225
g1
(g5
g8
tp3226
Rp3227
g1
(g5
g8
tp3228
Rp3229
tp3230
a(g1
(g5
g8
tp3231
Rp3232
g1
(g5
g8
tp3233
Rp3234
g1
(g5
g8
tp3235
Rp3236
tp3237
a(g1
(g5
g8
tp3238
Rp3239
g1
(g5
g8
tp3240
Rp3241
g1
(g5
g8
tp3242
Rp3243
tp3244
a(g1
(g5
g8
tp3245
Rp3246
g1
(g5
g8
tp3247
Rp3248
g1
(g5
g8
tp3249
Rp3250
tp3251
a(g1
(g5
g8
tp3252
Rp3253
g1
(g5
g8
tp3254
Rp3255
g1
(g5
g8
tp3256
Rp3257
tp3258
a(g1
(g5
g8
tp3259
Rp3260
g1
(g5
g8
tp3261
Rp3262
g1
(g5
g8
tp3263
Rp3264
tp3265
a(g1
(g5
g8
tp3266
Rp3267
g1
(g5
g8
tp3268
Rp3269
g1
(g5
g8
tp3270
Rp3271
tp3272
a(g1
(g5
g8
tp3273
Rp3274
g1
(g5
g8
tp3275
Rp3276
g1
(g5
g8
tp3277
Rp3278
tp3279
a(g1
(g5
g8
tp3280
Rp3281
g1
(g5
g8
tp3282
Rp3283
g1
(g5
g8
tp3284
Rp3285
tp3286
a(g1
(g5
g8
tp3287
Rp3288
g1
(g5
g8
tp3289
Rp3290
g1
(g5
g8
tp3291
Rp3292
tp3293
a(g1
(g5
g8
tp3294
Rp3295
g1
(g5
g8
tp3296
Rp3297
g1
(g5
g8
tp3298
Rp3299
tp3300
a(g1
(g5
g8
tp3301
Rp3302
g1
(g5
g8
tp3303
Rp3304
g1
(g5
g8
tp3305
Rp3306
tp3307
a(g1
(g5
g8
tp3308
Rp3309
g1
(g5
g8
tp3310
Rp3311
g1
(g5
g8
tp3312
Rp3313
tp3314
a(g1
(g5
g8
tp3315
Rp3316
g1
(g5
g8
tp3317
Rp3318
g1
(g5
g8
tp3319
Rp3320
tp3321
a(g1
(g5
g8
tp3322
Rp3323
g1
(g5
g8
tp3324
Rp3325
g1
(g5
g8
tp3326
Rp3327
tp3328
a(g1
(g5
g8
tp3329
Rp3330
g1
(g5
g8
tp3331
Rp3332
g1
(g5
g8
tp3333
Rp3334
tp3335
a(g1
(g5
g8
tp3336
Rp3337
g1
(g5
g8
tp3338
Rp3339
g1
(g5
g8
tp3340
Rp3341
tp3342
a(g1
(g5
g8
tp3343
Rp3344
g1
(g5
g8
tp3345
Rp3346
g1
(g5
g8
tp3347
Rp3348
tp3349
a(g1
(g5
g8
tp3350
Rp3351
g1
(g5
g8
tp3352
Rp3353
g1
(g5
g8
tp3354
Rp3355
tp3356
a(g1
(g5
g8
tp3357
Rp3358
g1
(g5
g8
tp3359
Rp3360
g1
(g5
g8
tp3361
Rp3362
tp3363
a(g1
(g5
g8
tp3364
Rp3365
g1
(g5
g8
tp3366
Rp3367
g1
(g5
g8
tp3368
Rp3369
tp3370
a(g1
(g5
g8
tp3371
Rp3372
g1
(g5
g8
tp3373
Rp3374
g1
(g5
g8
tp3375
Rp3376
tp3377
a(g1
(g5
g8
tp3378
Rp3379
g1
(g5
g8
tp3380
Rp3381
g1
(g5
g8
tp3382
Rp3383
tp3384
a(g1
(g5
g8
tp3385
Rp3386
g1
(g5
g8
tp3387
Rp3388
g1
(g5
g8
tp3389
Rp3390
tp3391
a(g1
(g5
g8
tp3392
Rp3393
g1
(g5
g8
tp3394
Rp3395
g1
(g5
g8
tp3396
Rp3397
tp3398
a(g1
(g5
g8
tp3399
Rp3400
g1
(g5
g8
tp3401
Rp3402
g1
(g5
g8
tp3403
Rp3404
tp3405
a(g1
(g5
g8
tp3406
Rp3407
g1
(g5
g8
tp3408
Rp3409
g1
(g5
g8
tp3410
Rp3411
tp3412
a(g1
(g5
g8
tp3413
Rp3414
g1
(g5
g8
tp3415
Rp3416
g1
(g5
g8
tp3417
Rp3418
tp3419
a(g1
(g5
g8
tp3420
Rp3421
g1
(g5
g8
tp3422
Rp3423
g1
(g5
g8
tp3424
Rp3425
tp3426
a(g1
(g5
g8
tp3427
Rp3428
g1
(g5
g8
tp3429
Rp3430
g1
(g5
g8
tp3431
Rp3432
tp3433
a(g1
(g5
g8
tp3434
Rp3435
g1
(g5
g8
tp3436
Rp3437
g1
(g5
g8
tp3438
Rp3439
tp3440
a(g1
(g5
g8
tp3441
Rp3442
g1
(g5
g8
tp3443
Rp3444
g1
(g5
g8
tp3445
Rp3446
tp3447
a(g1
(g5
g8
tp3448
Rp3449
g1
(g5
g8
tp3450
Rp3451
g1
(g5
g8
tp3452
Rp3453
tp3454
a(g1
(g5
g8
tp3455
Rp3456
g1
(g5
g8
tp3457
Rp3458
g1
(g5
g8
tp3459
Rp3460
tp3461
a(g1
(g5
g8
tp3462
Rp3463
g1
(g5
g8
tp3464
Rp3465
g1
(g5
g8
tp3466
Rp3467
tp3468
a(g1
(g5
g8
tp3469
Rp3470
g1
(g5
g8
tp3471
Rp3472
g1
(g5
g8
tp3473
Rp3474
tp3475
a(g1
(g5
g2214
tp3476
Rp3477
g1
(g5
g2217
tp3478
Rp3479
g1
(g5
g2217
tp3480
Rp3481
tp3482
a(g1
(g5
g8
tp3483
Rp3484
g1
(g5
g8
tp3485
Rp3486
g1
(g5
g8
tp3487
Rp3488
tp3489
a(g1
(g5
g8
tp3490
Rp3491
g1
(g5
g8
tp3492
Rp3493
g1
(g5
g8
tp3494
Rp3495
tp3496
a(g1
(g5
g8
tp3497
Rp3498
g1
(g5
g8
tp3499
Rp3500
g1
(g5
g8
tp3501
Rp3502
tp3503
a(g1
(g5
g8
tp3504
Rp3505
g1
(g5
g8
tp3506
Rp3507
g1
(g5
g8
tp3508
Rp3509
tp3510
a(g1
(g5
g8
tp3511
Rp3512
g1
(g5
g8
tp3513
Rp3514
g1
(g5
g8
tp3515
Rp3516
tp3517
a(g1
(g5
g8
tp3518
Rp3519
g1
(g5
g8
tp3520
Rp3521
g1
(g5
g8
tp3522
Rp3523
tp3524
a(g1
(g5
g8
tp3525
Rp3526
g1
(g5
g8
tp3527
Rp3528
g1
(g5
g8
tp3529
Rp3530
tp3531
a(g1
(g5
g8
tp3532
Rp3533
g1
(g5
g8
tp3534
Rp3535
g1
(g5
g8
tp3536
Rp3537
tp3538
a(g1
(g5
g8
tp3539
Rp3540
g1
(g5
g8
tp3541
Rp3542
g1
(g5
g8
tp3543
Rp3544
tp3545
a(g1
(g5
g8
tp3546
Rp3547
g1
(g5
g8
tp3548
Rp3549
g1
(g5
g8
tp3550
Rp3551
tp3552
a(g1
(g5
g8
tp3553
Rp3554
g1
(g5
g8
tp3555
Rp3556
g1
(g5
g8
tp3557
Rp3558
tp3559
a(g1
(g5
g8
tp3560
Rp3561
g1
(g5
g8
tp3562
Rp3563
g1
(g5
g8
tp3564
Rp3565
tp3566
a(g1
(g5
g8
tp3567
Rp3568
g1
(g5
g8
tp3569
Rp3570
g1
(g5
g8
tp3571
Rp3572
tp3573
a(g1
(g5
g8
tp3574
Rp3575
g1
(g5
g8
tp3576
Rp3577
g1
(g5
g8
tp3578
Rp3579
tp3580
a(g1
(g5
g8
tp3581
Rp3582
g1
(g5
g8
tp3583
Rp3584
g1
(g5
g8
tp3585
Rp3586
tp3587
a(g1
(g5
g8
tp3588
Rp3589
g1
(g5
g8
tp3590
Rp3591
g1
(g5
g8
tp3592
Rp3593
tp3594
a(g1
(g5
g8
tp3595
Rp3596
g1
(g5
g8
tp3597
Rp3598
g1
(g5
g8
tp3599
Rp3600
tp3601
a(g1
(g5
g8
tp3602
Rp3603
g1
(g5
g8
tp3604
Rp3605
g1
(g5
g8
tp3606
Rp3607
tp3608
a(g1
(g5
g8
tp3609
Rp3610
g1
(g5
g8
tp3611
Rp3612
g1
(g5
g8
tp3613
Rp3614
tp3615
a(g1
(g5
g8
tp3616
Rp3617
g1
(g5
g8
tp3618
Rp3619
g1
(g5
g8
tp3620
Rp3621
tp3622
a(g1
(g5
g8
tp3623
Rp3624
g1
(g5
g8
tp3625
Rp3626
g1
(g5
g8
tp3627
Rp3628
tp3629
a(g1
(g5
g8
tp3630
Rp3631
g1
(g5
g8
tp3632
Rp3633
g1
(g5
g8
tp3634
Rp3635
tp3636
a(g1
(g5
g8
tp3637
Rp3638
g1
(g5
g8
tp3639
Rp3640
g1
(g5
g8
tp3641
Rp3642
tp3643
a(g1
(g5
g8
tp3644
Rp3645
g1
(g5
g8
tp3646
Rp3647
g1
(g5
g8
tp3648
Rp3649
tp3650
a(g1
(g5
g8
tp3651
Rp3652
g1
(g5
g8
tp3653
Rp3654
g1
(g5
g8
tp3655
Rp3656
tp3657
a(g1
(g5
g8
tp3658
Rp3659
g1
(g5
g8
tp3660
Rp3661
g1
(g5
g8
tp3662
Rp3663
tp3664
a(g1
(g5
g8
tp3665
Rp3666
g1
(g5
g8
tp3667
Rp3668
g1
(g5
g8
tp3669
Rp3670
tp3671
a(g1
(g5
g8
tp3672
Rp3673
g1
(g5
g8
tp3674
Rp3675
g1
(g5
g8
tp3676
Rp3677
tp3678
a(g1
(g5
g8
tp3679
Rp3680
g1
(g5
g8
tp3681
Rp3682
g1
(g5
g8
tp3683
Rp3684
tp3685
a(g1
(g5
g8
tp3686
Rp3687
g1
(g5
g8
tp3688
Rp3689
g1
(g5
g8
tp3690
Rp3691
tp3692
a(g1
(g5
g8
tp3693
Rp3694
g1
(g5
g8
tp3695
Rp3696
g1
(g5
g8
tp3697
Rp3698
tp3699
a(g1
(g5
g8
tp3700
Rp3701
g1
(g5
g8
tp3702
Rp3703
g1
(g5
g8
tp3704
Rp3705
tp3706
a(g1
(g5
g8
tp3707
Rp3708
g1
(g5
g8
tp3709
Rp3710
g1
(g5
g8
tp3711
Rp3712
tp3713
a(g1
(g5
g8
tp3714
Rp3715
g1
(g5
g8
tp3716
Rp3717
g1
(g5
g8
tp3718
Rp3719
tp3720
a(g1
(g5
g8
tp3721
Rp3722
g1
(g5
g8
tp3723
Rp3724
g1
(g5
g8
tp3725
Rp3726
tp3727
a(g1
(g5
g8
tp3728
Rp3729
g1
(g5
g8
tp3730
Rp3731
g1
(g5
g8
tp3732
Rp3733
tp3734
a(g1
(g5
g8
tp3735
Rp3736
g1
(g5
g8
tp3737
Rp3738
g1
(g5
g8
tp3739
Rp3740
tp3741
a(g1
(g5
g8
tp3742
Rp3743
g1
(g5
g8
tp3744
Rp3745
g1
(g5
g8
tp3746
Rp3747
tp3748
a(g1
(g5
g8
tp3749
Rp3750
g1
(g5
g8
tp3751
Rp3752
g1
(g5
g8
tp3753
Rp3754
tp3755
a(g1
(g5
g8
tp3756
Rp3757
g1
(g5
g8
tp3758
Rp3759
g1
(g5
g8
tp3760
Rp3761
tp3762
a(g1
(g5
g8
tp3763
Rp3764
g1
(g5
g8
tp3765
Rp3766
g1
(g5
g8
tp3767
Rp3768
tp3769
a(g1
(g5
g8
tp3770
Rp3771
g1
(g5
g8
tp3772
Rp3773
g1
(g5
g8
tp3774
Rp3775
tp3776
a(g1
(g5
g8
tp3777
Rp3778
g1
(g5
g8
tp3779
Rp3780
g1
(g5
g8
tp3781
Rp3782
tp3783
a(g1
(g5
g8
tp3784
Rp3785
g1
(g5
g8
tp3786
Rp3787
g1
(g5
g8
tp3788
Rp3789
tp3790
a(g1
(g5
g2214
tp3791
Rp3792
g1
(g5
g2217
tp3793
Rp3794
g1
(g5
g2217
tp3795
Rp3796
tp3797
a(g1
(g5
g8
tp3798
Rp3799
g1
(g5
g8
tp3800
Rp3801
g1
(g5
g8
tp3802
Rp3803
tp3804
a(g1
(g5
g8
tp3805
Rp3806
g1
(g5
g8
tp3807
Rp3808
g1
(g5
g8
tp3809
Rp3810
tp3811
a(g1
(g5
g8
tp3812
Rp3813
g1
(g5
g8
tp3814
Rp3815
g1
(g5
g8
tp3816
Rp3817
tp3818
a(g1
(g5
g8
tp3819
Rp3820
g1
(g5
g8
tp3821
Rp3822
g1
(g5
g8
tp3823
Rp3824
tp3825
a(g1
(g5
g8
tp3826
Rp3827
g1
(g5
g8
tp3828
Rp3829
g1
(g5
g8
tp3830
Rp3831
tp3832
a(g1
(g5
g8
tp3833
Rp3834
g1
(g5
g8
tp3835
Rp3836
g1
(g5
g8
tp3837
Rp3838
tp3839
a(g1
(g5
g8
tp3840
Rp3841
g1
(g5
g8
tp3842
Rp3843
g1
(g5
g8
tp3844
Rp3845
tp3846
a(g1
(g5
g8
tp3847
Rp3848
g1
(g5
g8
tp3849
Rp3850
g1
(g5
g8
tp3851
Rp3852
tp3853
a(g1
(g5
g8
tp3854
Rp3855
g1
(g5
g8
tp3856
Rp3857
g1
(g5
g8
tp3858
Rp3859
tp3860
a(g1
(g5
g8
tp3861
Rp3862
g1
(g5
g8
tp3863
Rp3864
g1
(g5
g8
tp3865
Rp3866
tp3867
a(g1
(g5
g8
tp3868
Rp3869
g1
(g5
g8
tp3870
Rp3871
g1
(g5
g8
tp3872
Rp3873
tp3874
a(g1
(g5
g8
tp3875
Rp3876
g1
(g5
g8
tp3877
Rp3878
g1
(g5
g8
tp3879
Rp3880
tp3881
a(g1
(g5
g8
tp3882
Rp3883
g1
(g5
g8
tp3884
Rp3885
g1
(g5
g8
tp3886
Rp3887
tp3888
a(g1
(g5
g8
tp3889
Rp3890
g1
(g5
g8
tp3891
Rp3892
g1
(g5
g8
tp3893
Rp3894
tp3895
a(g1
(g5
g8
tp3896
Rp3897
g1
(g5
g8
tp3898
Rp3899
g1
(g5
g8
tp3900
Rp3901
tp3902
a(g1
(g5
g8
tp3903
Rp3904
g1
(g5
g8
tp3905
Rp3906
g1
(g5
g8
tp3907
Rp3908
tp3909
a(g1
(g5
g8
tp3910
Rp3911
g1
(g5
g8
tp3912
Rp3913
g1
(g5
g8
tp3914
Rp3915
tp3916
a(g1
(g5
g8
tp3917
Rp3918
g1
(g5
g8
tp3919
Rp3920
g1
(g5
g8
tp3921
Rp3922
tp3923
a(g1
(g5
g8
tp3924
Rp3925
g1
(g5
g8
tp3926
Rp3927
g1
(g5
g8
tp3928
Rp3929
tp3930
a(g1
(g5
g8
tp3931
Rp3932
g1
(g5
g8
tp3933
Rp3934
g1
(g5
g8
tp3935
Rp3936
tp3937
a(g1
(g5
g8
tp3938
Rp3939
g1
(g5
g8
tp3940
Rp3941
g1
(g5
g8
tp3942
Rp3943
tp3944
a(g1
(g5
g8
tp3945
Rp3946
g1
(g5
g8
tp3947
Rp3948
g1
(g5
g8
tp3949
Rp3950
tp3951
a(g1
(g5
g8
tp3952
Rp3953
g1
(g5
g8
tp3954
Rp3955
g1
(g5
g8
tp3956
Rp3957
tp3958
a(g1
(g5
g8
tp3959
Rp3960
g1
(g5
g8
tp3961
Rp3962
g1
(g5
g8
tp3963
Rp3964
tp3965
a(g1
(g5
g8
tp3966
Rp3967
g1
(g5
g8
tp3968
Rp3969
g1
(g5
g8
tp3970
Rp3971
tp3972
a(g1
(g5
g8
tp3973
Rp3974
g1
(g5
g8
tp3975
Rp3976
g1
(g5
g8
tp3977
Rp3978
tp3979
a(g1
(g5
g8
tp3980
Rp3981
g1
(g5
g8
tp3982
Rp3983
g1
(g5
g8
tp3984
Rp3985
tp3986
a(g1
(g5
g8
tp3987
Rp3988
g1
(g5
g8
tp3989
Rp3990
g1
(g5
g8
tp3991
Rp3992
tp3993
a(g1
(g5
g8
tp3994
Rp3995
g1
(g5
g8
tp3996
Rp3997
g1
(g5
g8
tp3998
Rp3999
tp4000
a(g1
(g5
g8
tp4001
Rp4002
g1
(g5
g8
tp4003
Rp4004
g1
(g5
g8
tp4005
Rp4006
tp4007
a(g1
(g5
g8
tp4008
Rp4009
g1
(g5
g8
tp4010
Rp4011
g1
(g5
g8
tp4012
Rp4013
tp4014
a(g1
(g5
g8
tp4015
Rp4016
g1
(g5
g8
tp4017
Rp4018
g1
(g5
g8
tp4019
Rp4020
tp4021
a(g1
(g5
g8
tp4022
Rp4023
g1
(g5
g8
tp4024
Rp4025
g1
(g5
g8
tp4026
Rp4027
tp4028
a(g1
(g5
g8
tp4029
Rp4030
g1
(g5
g8
tp4031
Rp4032
g1
(g5
g8
tp4033
Rp4034
tp4035
a(g1
(g5
g8
tp4036
Rp4037
g1
(g5
g8
tp4038
Rp4039
g1
(g5
g8
tp4040
Rp4041
tp4042
a(g1
(g5
g8
tp4043
Rp4044
g1
(g5
g8
tp4045
Rp4046
g1
(g5
g8
tp4047
Rp4048
tp4049
a(g1
(g5
g8
tp4050
Rp4051
g1
(g5
g8
tp4052
Rp4053
g1
(g5
g8
tp4054
Rp4055
tp4056
a(g1
(g5
g8
tp4057
Rp4058
g1
(g5
g8
tp4059
Rp4060
g1
(g5
g8
tp4061
Rp4062
tp4063
a(g1
(g5
g8
tp4064
Rp4065
g1
(g5
g8
tp4066
Rp4067
g1
(g5
g8
tp4068
Rp4069
tp4070
a(g1
(g5
g8
tp4071
Rp4072
g1
(g5
g8
tp4073
Rp4074
g1
(g5
g8
tp4075
Rp4076
tp4077
a(g1
(g5
g8
tp4078
Rp4079
g1
(g5
g8
tp4080
Rp4081
g1
(g5
g8
tp4082
Rp4083
tp4084
a(g1
(g5
g8
tp4085
Rp4086
g1
(g5
g8
tp4087
Rp4088
g1
(g5
g8
tp4089
Rp4090
tp4091
a(g1
(g5
g8
tp4092
Rp4093
g1
(g5
g8
tp4094
Rp4095
g1
(g5
g8
tp4096
Rp4097
tp4098
a(g1
(g5
g8
tp4099
Rp4100
g1
(g5
g8
tp4101
Rp4102
g1
(g5
g8
tp4103
Rp4104
tp4105
a(g1
(g5
g2214
tp4106
Rp4107
g1
(g5
g2217
tp4108
Rp4109
g1
(g5
g2217
tp4110
Rp4111
tp4112
a(g1
(g5
g8
tp4113
Rp4114
g1
(g5
g8
tp4115
Rp4116
g1
(g5
g8
tp4117
Rp4118
tp4119
a(g1
(g5
g8
tp4120
Rp4121
g1
(g5
g8
tp4122
Rp4123
g1
(g5
g8
tp4124
Rp4125
tp4126
a(g1
(g5
g8
tp4127
Rp4128
g1
(g5
g8
tp4129
Rp4130
g1
(g5
g8
tp4131
Rp4132
tp4133
a(g1
(g5
g8
tp4134
Rp4135
g1
(g5
g8
tp4136
Rp4137
g1
(g5
g8
tp4138
Rp4139
tp4140
a(g1
(g5
g8
tp4141
Rp4142
g1
(g5
g8
tp4143
Rp4144
g1
(g5
g8
tp4145
Rp4146
tp4147
a(g1
(g5
g8
tp4148
Rp4149
g1
(g5
g8
tp4150
Rp4151
g1
(g5
g8
tp4152
Rp4153
tp4154
a(g1
(g5
g8
tp4155
Rp4156
g1
(g5
g8
tp4157
Rp4158
g1
(g5
g8
tp4159
Rp4160
tp4161
a(g1
(g5
g8
tp4162
Rp4163
g1
(g5
g8
tp4164
Rp4165
g1
(g5
g8
tp4166
Rp4167
tp4168
a(g1
(g5
g8
tp4169
Rp4170
g1
(g5
g8
tp4171
Rp4172
g1
(g5
g8
tp4173
Rp4174
tp4175
a(g1
(g5
g8
tp4176
Rp4177
g1
(g5
g8
tp4178
Rp4179
g1
(g5
g8
tp4180
Rp4181
tp4182
a(g1
(g5
g8
tp4183
Rp4184
g1
(g5
g8
tp4185
Rp4186
g1
(g5
g8
tp4187
Rp4188
tp4189
a(g1
(g5
g8
tp4190
Rp4191
g1
(g5
g8
tp4192
Rp4193
g1
(g5
g8
tp4194
Rp4195
tp4196
a(g1
(g5
g8
tp4197
Rp4198
g1
(g5
g8
tp4199
Rp4200
g1
(g5
g8
tp4201
Rp4202
tp4203
a(g1
(g5
g8
tp4204
Rp4205
g1
(g5
g8
tp4206
Rp4207
g1
(g5
g8
tp4208
Rp4209
tp4210
a(g1
(g5
g8
tp4211
Rp4212
g1
(g5
g8
tp4213
Rp4214
g1
(g5
g8
tp4215
Rp4216
tp4217
a(g1
(g5
g8
tp4218
Rp4219
g1
(g5
g8
tp4220
Rp4221
g1
(g5
g8
tp4222
Rp4223
tp4224
a(g1
(g5
g8
tp4225
Rp4226
g1
(g5
g8
tp4227
Rp4228
g1
(g5
g8
tp4229
Rp4230
tp4231
a(g1
(g5
g8
tp4232
Rp4233
g1
(g5
g8
tp4234
Rp4235
g1
(g5
g8
tp4236
Rp4237
tp4238
a(g1
(g5
g8
tp4239
Rp4240
g1
(g5
g8
tp4241
Rp4242
g1
(g5
g8
tp4243
Rp4244
tp4245
a(g1
(g5
g8
tp4246
Rp4247
g1
(g5
g8
tp4248
Rp4249
g1
(g5
g8
tp4250
Rp4251
tp4252
a(g1
(g5
g8
tp4253
Rp4254
g1
(g5
g8
tp4255
Rp4256
g1
(g5
g8
tp4257
Rp4258
tp4259
a(g1
(g5
g8
tp4260
Rp4261
g1
(g5
g8
tp4262
Rp4263
g1
(g5
g8
tp4264
Rp4265
tp4266
a(g1
(g5
g8
tp4267
Rp4268
g1
(g5
g8
tp4269
Rp4270
g1
(g5
g8
tp4271
Rp4272
tp4273
a(g1
(g5
g8
tp4274
Rp4275
g1
(g5
g8
tp4276
Rp4277
g1
(g5
g8
tp4278
Rp4279
tp4280
a(g1
(g5
g8
tp4281
Rp4282
g1
(g5
g8
tp4283
Rp4284
g1
(g5
g8
tp4285
Rp4286
tp4287
a(g1
(g5
g8
tp4288
Rp4289
g1
(g5
g8
tp4290
Rp4291
g1
(g5
g8
tp4292
Rp4293
tp4294
a(g1
(g5
g8
tp4295
Rp4296
g1
(g5
g8
tp4297
Rp4298
g1
(g5
g8
tp4299
Rp4300
tp4301
a(g1
(g5
g8
tp4302
Rp4303
g1
(g5
g8
tp4304
Rp4305
g1
(g5
g8
tp4306
Rp4307
tp4308
a(g1
(g5
g8
tp4309
Rp4310
g1
(g5
g8
tp4311
Rp4312
g1
(g5
g8
tp4313
Rp4314
tp4315
a(g1
(g5
g8
tp4316
Rp4317
g1
(g5
g8
tp4318
Rp4319
g1
(g5
g8
tp4320
Rp4321
tp4322
a(g1
(g5
g8
tp4323
Rp4324
g1
(g5
g8
tp4325
Rp4326
g1
(g5
g8
tp4327
Rp4328
tp4329
a(g1
(g5
g8
tp4330
Rp4331
g1
(g5
g8
tp4332
Rp4333
g1
(g5
g8
tp4334
Rp4335
tp4336
a(g1
(g5
g8
tp4337
Rp4338
g1
(g5
g8
tp4339
Rp4340
g1
(g5
g8
tp4341
Rp4342
tp4343
a(g1
(g5
g8
tp4344
Rp4345
g1
(g5
g8
tp4346
Rp4347
g1
(g5
g8
tp4348
Rp4349
tp4350
a(g1
(g5
g8
tp4351
Rp4352
g1
(g5
g8
tp4353
Rp4354
g1
(g5
g8
tp4355
Rp4356
tp4357
a(g1
(g5
g8
tp4358
Rp4359
g1
(g5
g8
tp4360
Rp4361
g1
(g5
g8
tp4362
Rp4363
tp4364
a(g1
(g5
g8
tp4365
Rp4366
g1
(g5
g8
tp4367
Rp4368
g1
(g5
g8
tp4369
Rp4370
tp4371
a(g1
(g5
g8
tp4372
Rp4373
g1
(g5
g8
tp4374
Rp4375
g1
(g5
g8
tp4376
Rp4377
tp4378
a(g1
(g5
g8
tp4379
Rp4380
g1
(g5
g8
tp4381
Rp4382
g1
(g5
g8
tp4383
Rp4384
tp4385
a(g1
(g5
g8
tp4386
Rp4387
g1
(g5
g8
tp4388
Rp4389
g1
(g5
g8
tp4390
Rp4391
tp4392
a(g1
(g5
g8
tp4393
Rp4394
g1
(g5
g8
tp4395
Rp4396
g1
(g5
g8
tp4397
Rp4398
tp4399
a(g1
(g5
g8
tp4400
Rp4401
g1
(g5
g8
tp4402
Rp4403
g1
(g5
g8
tp4404
Rp4405
tp4406
a(g1
(g5
g8
tp4407
Rp4408
g1
(g5
g8
tp4409
Rp4410
g1
(g5
g8
tp4411
Rp4412
tp4413
a(g1
(g5
g8
tp4414
Rp4415
g1
(g5
g8
tp4416
Rp4417
g1
(g5
g8
tp4418
Rp4419
tp4420
a(g1
(g5
g2214
tp4421
Rp4422
g1
(g5
g2217
tp4423
Rp4424
g1
(g5
g2217
tp4425
Rp4426
tp4427
a(g1
(g5
g8
tp4428
Rp4429
g1
(g5
g8
tp4430
Rp4431
g1
(g5
g8
tp4432
Rp4433
tp4434
a(g1
(g5
g8
tp4435
Rp4436
g1
(g5
g8
tp4437
Rp4438
g1
(g5
g8
tp4439
Rp4440
tp4441
a(g1
(g5
g8
tp4442
Rp4443
g1
(g5
g8
tp4444
Rp4445
g1
(g5
g8
tp4446
Rp4447
tp4448
a(g1
(g5
g8
tp4449
Rp4450
g1
(g5
g8
tp4451
Rp4452
g1
(g5
g8
tp4453
Rp4454
tp4455
a(g1
(g5
g8
tp4456
Rp4457
g1
(g5
g8
tp4458
Rp4459
g1
(g5
g8
tp4460
Rp4461
tp4462
a(g1
(g5
g8
tp4463
Rp4464
g1
(g5
g8
tp4465
Rp4466
g1
(g5
g8
tp4467
Rp4468
tp4469
a(g1
(g5
g8
tp4470
Rp4471
g1
(g5
g8
tp4472
Rp4473
g1
(g5
g8
tp4474
Rp4475
tp4476
a(g1
(g5
g8
tp4477
Rp4478
g1
(g5
g8
tp4479
Rp4480
g1
(g5
g8
tp4481
Rp4482
tp4483
a(g1
(g5
g8
tp4484
Rp4485
g1
(g5
g8
tp4486
Rp4487
g1
(g5
g8
tp4488
Rp4489
tp4490
a(g1
(g5
g8
tp4491
Rp4492
g1
(g5
g8
tp4493
Rp4494
g1
(g5
g8
tp4495
Rp4496
tp4497
a(g1
(g5
g8
tp4498
Rp4499
g1
(g5
g8
tp4500
Rp4501
g1
(g5
g8
tp4502
Rp4503
tp4504
a(g1
(g5
g8
tp4505
Rp4506
g1
(g5
g8
tp4507
Rp4508
g1
(g5
g8
tp4509
Rp4510
tp4511
a(g1
(g5
g8
tp4512
Rp4513
g1
(g5
g8
tp4514
Rp4515
g1
(g5
g8
tp4516
Rp4517
tp4518
a(g1
(g5
g8
tp4519
Rp4520
g1
(g5
g8
tp4521
Rp4522
g1
(g5
g8
tp4523
Rp4524
tp4525
a(g1
(g5
g8
tp4526
Rp4527
g1
(g5
g8
tp4528
Rp4529
g1
(g5
g8
tp4530
Rp4531
tp4532
a(g1
(g5
g8
tp4533
Rp4534
g1
(g5
g8
tp4535
Rp4536
g1
(g5
g8
tp4537
Rp4538
tp4539
a(g1
(g5
g8
tp4540
Rp4541
g1
(g5
g8
tp4542
Rp4543
g1
(g5
g8
tp4544
Rp4545
tp4546
a(g1
(g5
g8
tp4547
Rp4548
g1
(g5
g8
tp4549
Rp4550
g1
(g5
g8
tp4551
Rp4552
tp4553
a(g1
(g5
g8
tp4554
Rp4555
g1
(g5
g8
tp4556
Rp4557
g1
(g5
g8
tp4558
Rp4559
tp4560
a(g1
(g5
g8
tp4561
Rp4562
g1
(g5
g8
tp4563
Rp4564
g1
(g5
g8
tp4565
Rp4566
tp4567
a(g1
(g5
g8
tp4568
Rp4569
g1
(g5
g8
tp4570
Rp4571
g1
(g5
g8
tp4572
Rp4573
tp4574
a(g1
(g5
g8
tp4575
Rp4576
g1
(g5
g8
tp4577
Rp4578
g1
(g5
g8
tp4579
Rp4580
tp4581
a(g1
(g5
g8
tp4582
Rp4583
g1
(g5
g8
tp4584
Rp4585
g1
(g5
g8
tp4586
Rp4587
tp4588
a(g1
(g5
g8
tp4589
Rp4590
g1
(g5
g8
tp4591
Rp4592
g1
(g5
g8
tp4593
Rp4594
tp4595
a(g1
(g5
g8
tp4596
Rp4597
g1
(g5
g8
tp4598
Rp4599
g1
(g5
g8
tp4600
Rp4601
tp4602
a(g1
(g5
g8
tp4603
Rp4604
g1
(g5
g8
tp4605
Rp4606
g1
(g5
g8
tp4607
Rp4608
tp4609
a(g1
(g5
g8
tp4610
Rp4611
g1
(g5
g8
tp4612
Rp4613
g1
(g5
g8
tp4614
Rp4615
tp4616
a(g1
(g5
g8
tp4617
Rp4618
g1
(g5
g8
tp4619
Rp4620
g1
(g5
g8
tp4621
Rp4622
tp4623
a(g1
(g5
g8
tp4624
Rp4625
g1
(g5
g8
tp4626
Rp4627
g1
(g5
g8
tp4628
Rp4629
tp4630
a(g1
(g5
g8
tp4631
Rp4632
g1
(g5
g8
tp4633
Rp4634
g1
(g5
g8
tp4635
Rp4636
tp4637
a(g1
(g5
g8
tp4638
Rp4639
g1
(g5
g8
tp4640
Rp4641
g1
(g5
g8
tp4642
Rp4643
tp4644
a(g1
(g5
g8
tp4645
Rp4646
g1
(g5
g8
tp4647
Rp4648
g1
(g5
g8
tp4649
Rp4650
tp4651
a(g1
(g5
g8
tp4652
Rp4653
g1
(g5
g8
tp4654
Rp4655
g1
(g5
g8
tp4656
Rp4657
tp4658
a(g1
(g5
g8
tp4659
Rp4660
g1
(g5
g8
tp4661
Rp4662
g1
(g5
g8
tp4663
Rp4664
tp4665
a(g1
(g5
g8
tp4666
Rp4667
g1
(g5
g8
tp4668
Rp4669
g1
(g5
g8
tp4670
Rp4671
tp4672
a(g1
(g5
g8
tp4673
Rp4674
g1
(g5
g8
tp4675
Rp4676
g1
(g5
g8
tp4677
Rp4678
tp4679
a(g1
(g5
g8
tp4680
Rp4681
g1
(g5
g8
tp4682
Rp4683
g1
(g5
g8
tp4684
Rp4685
tp4686
a(g1
(g5
g8
tp4687
Rp4688
g1
(g5
g8
tp4689
Rp4690
g1
(g5
g8
tp4691
Rp4692
tp4693
a(g1
(g5
g8
tp4694
Rp4695
g1
(g5
g8
tp4696
Rp4697
g1
(g5
g8
tp4698
Rp4699
tp4700
a(g1
(g5
g8
tp4701
Rp4702
g1
(g5
g8
tp4703
Rp4704
g1
(g5
g8
tp4705
Rp4706
tp4707
a(g1
(g5
g8
tp4708
Rp4709
g1
(g5
g8
tp4710
Rp4711
g1
(g5
g8
tp4712
Rp4713
tp4714
a(g1
(g5
g8
tp4715
Rp4716
g1
(g5
g8
tp4717
Rp4718
g1
(g5
g8
tp4719
Rp4720
tp4721
a(g1
(g5
g8
tp4722
Rp4723
g1
(g5
g8
tp4724
Rp4725
g1
(g5
g8
tp4726
Rp4727
tp4728
a(g1
(g5
g8
tp4729
Rp4730
g1
(g5
g8
tp4731
Rp4732
g1
(g5
g8
tp4733
Rp4734
tp4735
a(g1
(g5
g8
tp4736
Rp4737
g1
(g5
g8
tp4738
Rp4739
g1
(g5
g8
tp4740
Rp4741
tp4742
a(g1
(g5
g8
tp4743
Rp4744
g1
(g5
g8
tp4745
Rp4746
g1
(g5
g8
tp4747
Rp4748
tp4749
a(g1
(g5
g8
tp4750
Rp4751
g1
(g5
g8
tp4752
Rp4753
g1
(g5
g8
tp4754
Rp4755
tp4756
a(g1
(g5
g8
tp4757
Rp4758
g1
(g5
g8
tp4759
Rp4760
g1
(g5
g8
tp4761
Rp4762
tp4763
a(g1
(g5
g8
tp4764
Rp4765
g1
(g5
g8
tp4766
Rp4767
g1
(g5
g8
tp4768
Rp4769
tp4770
a(g1
(g5
g8
tp4771
Rp4772
g1
(g5
g8
tp4773
Rp4774
g1
(g5
g8
tp4775
Rp4776
tp4777
a(g1
(g5
g8
tp4778
Rp4779
g1
(g5
g8
tp4780
Rp4781
g1
(g5
g8
tp4782
Rp4783
tp4784
a(g1
(g5
g8
tp4785
Rp4786
g1
(g5
g8
tp4787
Rp4788
g1
(g5
g8
tp4789
Rp4790
tp4791
a(g1
(g5
g8
tp4792
Rp4793
g1
(g5
g8
tp4794
Rp4795
g1
(g5
g8
tp4796
Rp4797
tp4798
a(g1
(g5
g8
tp4799
Rp4800
g1
(g5
g8
tp4801
Rp4802
g1
(g5
g8
tp4803
Rp4804
tp4805
a(g1
(g5
g8
tp4806
Rp4807
g1
(g5
g8
tp4808
Rp4809
g1
(g5
g8
tp4810
Rp4811
tp4812
a(g1
(g5
g8
tp4813
Rp4814
g1
(g5
g8
tp4815
Rp4816
g1
(g5
g8
tp4817
Rp4818
tp4819
a(g1
(g5
g8
tp4820
Rp4821
g1
(g5
g8
tp4822
Rp4823
g1
(g5
g8
tp4824
Rp4825
tp4826
a(g1
(g5
g8
tp4827
Rp4828
g1
(g5
g8
tp4829
Rp4830
g1
(g5
g8
tp4831
Rp4832
tp4833
a(g1
(g5
g8
tp4834
Rp4835
g1
(g5
g8
tp4836
Rp4837
g1
(g5
g8
tp4838
Rp4839
tp4840
a(g1
(g5
g8
tp4841
Rp4842
g1
(g5
g8
tp4843
Rp4844
g1
(g5
g8
tp4845
Rp4846
tp4847
a(g1
(g5
g8
tp4848
Rp4849
g1
(g5
g8
tp4850
Rp4851
g1
(g5
g8
tp4852
Rp4853
tp4854
a(g1
(g5
g8
tp4855
Rp4856
g1
(g5
g8
tp4857
Rp4858
g1
(g5
g8
tp4859
Rp4860
tp4861
a(g1
(g5
g8
tp4862
Rp4863
g1
(g5
g8
tp4864
Rp4865
g1
(g5
g8
tp4866
Rp4867
tp4868
a(g1
(g5
g8
tp4869
Rp4870
g1
(g5
g8
tp4871
Rp4872
g1
(g5
g8
tp4873
Rp4874
tp4875
a(g1
(g5
g8
tp4876
Rp4877
g1
(g5
g8
tp4878
Rp4879
g1
(g5
g8
tp4880
Rp4881
tp4882
a(g1
(g5
g8
tp4883
Rp4884
g1
(g5
g8
tp4885
Rp4886
g1
(g5
g8
tp4887
Rp4888
tp4889
a(g1
(g5
g8
tp4890
Rp4891
g1
(g5
g8
tp4892
Rp4893
g1
(g5
g8
tp4894
Rp4895
tp4896
a(g1
(g5
g8
tp4897
Rp4898
g1
(g5
g8
tp4899
Rp4900
g1
(g5
g8
tp4901
Rp4902
tp4903
a(g1
(g5
g8
tp4904
Rp4905
g1
(g5
g8
tp4906
Rp4907
g1
(g5
g8
tp4908
Rp4909
tp4910
a(g1
(g5
g8
tp4911
Rp4912
g1
(g5
g8
tp4913
Rp4914
g1
(g5
g8
tp4915
Rp4916
tp4917
a(g1
(g5
g8
tp4918
Rp4919
g1
(g5
g8
tp4920
Rp4921
g1
(g5
g8
tp4922
Rp4923
tp4924
a(g1
(g5
g8
tp4925
Rp4926
g1
(g5
g8
tp4927
Rp4928
g1
(g5
g8
tp4929
Rp4930
tp4931
a(g1
(g5
g8
tp4932
Rp4933
g1
(g5
g8
tp4934
Rp4935
g1
(g5
g8
tp4936
Rp4937
tp4938
a(g1
(g5
g8
tp4939
Rp4940
g1
(g5
g8
tp4941
Rp4942
g1
(g5
g8
tp4943
Rp4944
tp4945
a(g1
(g5
g8
tp4946
Rp4947
g1
(g5
g8
tp4948
Rp4949
g1
(g5
g8
tp4950
Rp4951
tp4952
a(g1
(g5
g8
tp4953
Rp4954
g1
(g5
g8
tp4955
Rp4956
g1
(g5
g8
tp4957
Rp4958
tp4959
a(g1
(g5
g8
tp4960
Rp4961
g1
(g5
g8
tp4962
Rp4963
g1
(g5
g8
tp4964
Rp4965
tp4966
a(g1
(g5
g8
tp4967
Rp4968
g1
(g5
g8
tp4969
Rp4970
g1
(g5
g8
tp4971
Rp4972
tp4973
a(g1
(g5
g8
tp4974
Rp4975
g1
(g5
g8
tp4976
Rp4977
g1
(g5
g8
tp4978
Rp4979
tp4980
a(g1
(g5
g8
tp4981
Rp4982
g1
(g5
g8
tp4983
Rp4984
g1
(g5
g8
tp4985
Rp4986
tp4987
a(g1
(g5
g8
tp4988
Rp4989
g1
(g5
g8
tp4990
Rp4991
g1
(g5
g8
tp4992
Rp4993
tp4994
a(g1
(g5
g8
tp4995
Rp4996
g1
(g5
g8
tp4997
Rp4998
g1
(g5
g8
tp4999
Rp5000
tp5001
a(g1
(g5
g8
tp5002
Rp5003
g1
(g5
g8
tp5004
Rp5005
g1
(g5
g8
tp5006
Rp5007
tp5008
a(g1
(g5
g8
tp5009
Rp5010
g1
(g5
g8
tp5011
Rp5012
g1
(g5
g8
tp5013
Rp5014
tp5015
a(g1
(g5
g8
tp5016
Rp5017
g1
(g5
g8
tp5018
Rp5019
g1
(g5
g8
tp5020
Rp5021
tp5022
a(g1
(g5
g8
tp5023
Rp5024
g1
(g5
g8
tp5025
Rp5026
g1
(g5
g8
tp5027
Rp5028
tp5029
a(g1
(g5
g8
tp5030
Rp5031
g1
(g5
g8
tp5032
Rp5033
g1
(g5
g8
tp5034
Rp5035
tp5036
a(g1
(g5
g8
tp5037
Rp5038
g1
(g5
g8
tp5039
Rp5040
g1
(g5
g8
tp5041
Rp5042
tp5043
a(g1
(g5
g8
tp5044
Rp5045
g1
(g5
g8
tp5046
Rp5047
g1
(g5
g8
tp5048
Rp5049
tp5050
a.