(lp0
(cnumpy.core.multiarray
scalar
p1
(cnumpy
dtype
p2
(S'u1'
p3
I0
I1
tp4
Rp5
(I3
S'|'
p6
NNNI-1
I-1
I0
tp7
bS'\x00'
p8
tp9
Rp10
g1
(g5
g8
tp11
Rp12
g1
(g5
g8
tp13
Rp14
tp15
a(g1
(g5
g8
tp16
Rp17
g1
(g5
g8
tp18
Rp19
g1
(g5
g8
tp20
Rp21
tp22
a(g1
(g5
g8
tp23
Rp24
g1
(g5
g8
tp25
Rp26
g1
(g5
g8
tp27
Rp28
tp29
a(g1
(g5
g8
tp30
Rp31
g1
(g5
g8
tp32
Rp33
g1
(g5
g8
tp34
Rp35
tp36
a(g1
(g5
g8
tp37
Rp38
g1
(g5
g8
tp39
Rp40
g1
(g5
g8
tp41
Rp42
tp43
a(g1
(g5
g8
tp44
Rp45
g1
(g5
g8
tp46
Rp47
g1
(g5
g8
tp48
Rp49
tp50
a(g1
(g5
g8
tp51
Rp52
g1
(g5
g8
tp53
Rp54
g1
(g5
g8
tp55
Rp56
tp57
a(g1
(g5
g8
tp58
Rp59
g1
(g5
g8
tp60
Rp61
g1
(g5
g8
tp62
Rp63
tp64
a(g1
(g5
g8
tp65
Rp66
g1
(g5
g8
tp67
Rp68
g1
(g5
g8
tp69
Rp70
tp71
a(g1
(g5
g8
tp72
Rp73
g1
(g5
g8
tp74
Rp75
g1
(g5
g8
tp76
Rp77
tp78
a(g1
(g5
g8
tp79
Rp80
g1
(g5
g8
tp81
Rp82
g1
(g5
g8
tp83
Rp84
tp85
a(g1
(g5
g8
tp86
Rp87
g1
(g5
g8
tp88
Rp89
g1
(g5
g8
tp90
Rp91
tp92
a(g1
(g5
g8
tp93
Rp94
g1
(g5
g8
tp95
Rp96
g1
(g5
g8
tp97
Rp98
tp99
a(g1
(g5
g8
tp100
Rp101
g1
(g5
g8
tp102
Rp103
g1
(g5
g8
tp104
Rp105
tp106
a(g1
(g5
g8
tp107
Rp108
g1
(g5
g8
tp109
Rp110
g1
(g5
g8
tp111
Rp112
tp113
a(g1
(g5
g8
tp114
Rp115
g1
(g5
g8
tp116
Rp117
g1
(g5
g8
tp118
Rp119
tp120
a(g1
(g5
g8
tp121
Rp122
g1
(g5
g8
tp123
Rp124
g1
(g5
g8
tp125
Rp126
tp127
a(g1
(g5
g8
tp128
Rp129
g1
(g5
g8
tp130
Rp131
g1
(g5
g8
tp132
Rp133
tp134
a(g1
(g5
g8
tp135
Rp136
g1
(g5
g8
tp137
Rp138
g1
(g5
g8
tp139
Rp140
tp141
a(g1
(g5
g8
tp142
Rp143
g1
(g5
g8
tp144
Rp145
g1
(g5
g8
tp146
Rp147
tp148
a(g1
(g5
g8
tp149
Rp150
g1
(g5
g8
tp151
Rp152
g1
(g5
g8
tp153
Rp154
tp155
a(g1
(g5
g8
tp156
Rp157
g1
(g5
g8
tp158
Rp159
g1
(g5
g8
tp160
Rp161
tp162
a(g1
(g5
g8
tp163
Rp164
g1
(g5
g8
tp165
Rp166
g1
(g5
g8
tp167
Rp168
tp169
a(g1
(g5
g8
tp170
Rp171
g1
(g5
g8
tp172
Rp173
g1
(g5
g8
tp174
Rp175
tp176
a(g1
(g5
g8
tp177
Rp178
g1
(g5
g8
tp179
Rp180
g1
(g5
g8
tp181
Rp182
tp183
a(g1
(g5
g8
tp184
Rp185
g1
(g5
g8
tp186
Rp187
g1
(g5
g8
tp188
Rp189
tp190
a(g1
(g5
g8
tp191
Rp192
g1
(g5
g8
tp193
Rp194
g1
(g5
g8
tp195
Rp196
tp197
a(g1
(g5
g8
tp198
Rp199
g1
(g5
g8
tp200
Rp201
g1
(g5
g8
tp202
Rp203
tp204
a(g1
(g5
g8
tp205
Rp206
g1
(g5
g8
tp207
Rp208
g1
(g5
g8
tp209
Rp210
tp211
a(g1
(g5
g8
tp212
Rp213
g1
(g5
g8
tp214
Rp215
g1
(g5
g8
tp216
Rp217
tp218
a(g1
(g5
g8
tp219
Rp220
g1
(g5
g8
tp221
Rp222
g1
(g5
g8
tp223
Rp224
tp225
a(g1
(g5
g8
tp226
Rp227
g1
(g5
g8
tp228
Rp229
g1
(g5
g8
tp230
Rp231
tp232
a(g1
(g5
g8
tp233
Rp234
g1
(g5
g8
tp235
Rp236
g1
(g5
g8
tp237
Rp238
tp239
a(g1
(g5
g8
tp240
Rp241
g1
(g5
g8
tp242
Rp243
g1
(g5
g8
tp244
Rp245
tp246
a(g1
(g5
g8
tp247
Rp248
g1
(g5
g8
tp249
Rp250
g1
(g5
g8
tp251
Rp252
tp253
a(g1
(g5
g8
tp254
Rp255
g1
(g5
g8
tp256
Rp257
g1
(g5
g8
tp258
Rp259
tp260
a(g1
(g5
g8
tp261
Rp262
g1
(g5
g8
tp263
Rp264
g1
(g5
g8
tp265
Rp266
tp267
a(g1
(g5
g8
tp268
Rp269
g1
(g5
g8
tp270
Rp271
g1
(g5
g8
tp272
Rp273
tp274
a(g1
(g5
g8
tp275
Rp276
g1
(g5
g8
tp277
Rp278
g1
(g5
g8
tp279
Rp280
tp281
a(g1
(g5
g8
tp282
Rp283
g1
(g5
g8
tp284
Rp285
g1
(g5
g8
tp286
Rp287
tp288
a(g1
(g5
g8
tp289
Rp290
g1
(g5
g8
tp291
Rp292
g1
(g5
g8
tp293
Rp294
tp295
a(g1
(g5
g8
tp296
Rp297
g1
(g5
g8
tp298
Rp299
g1
(g5
g8
tp300
Rp301
tp302
a(g1
(g5
g8
tp303
Rp304
g1
(g5
g8
tp305
Rp306
g1
(g5
g8
tp307
Rp308
tp309
a(g1
(g5
g8
tp310
Rp311
g1
(g5
g8
tp312
Rp313
g1
(g5
g8
tp314
Rp315
tp316
a(g1
(g5
g8
tp317
Rp318
g1
(g5
g8
tp319
Rp320
g1
(g5
g8
tp321
Rp322
tp323
a(g1
(g5
g8
tp324
Rp325
g1
(g5
g8
tp326
Rp327
g1
(g5
g8
tp328
Rp329
tp330
a(g1
(g5
g8
tp331
Rp332
g1
(g5
g8
tp333
Rp334
g1
(g5
g8
tp335
Rp336
tp337
a(g1
(g5
g8
tp338
Rp339
g1
(g5
g8
tp340
Rp341
g1
(g5
g8
tp342
Rp343
tp344
a(g1
(g5
g8
tp345
Rp346
g1
(g5
g8
tp347
Rp348
g1
(g5
g8
tp349
Rp350
tp351
a(g1
(g5
g8
tp352
Rp353
g1
(g5
g8
tp354
Rp355
g1
(g5
g8
tp356
Rp357
tp358
a(g1
(g5
g8
tp359
Rp360
g1
(g5
g8
tp361
Rp362
g1
(g5
g8
tp363
Rp364
tp365
a(g1
(g5
g8
tp366
Rp367
g1
(g5
g8
tp368
Rp369
g1
(g5
g8
tp370
Rp371
tp372
a(g1
(g5
g8
tp373
Rp374
g1
(g5
g8
tp375
Rp376
g1
(g5
g8
tp377
Rp378
tp379
a(g1
(g5
g8
tp380
Rp381
g1
(g5
g8
tp382
Rp383
g1
(g5
g8
tp384
Rp385
tp386
a(g1
(g5
g8
tp387
Rp388
g1
(g5
g8
tp389
Rp390
g1
(g5
g8
tp391
Rp392
tp393
a(g1
(g5
g8
tp394
Rp395
g1
(g5
g8
tp396
Rp397
g1
(g5
g8
tp398
Rp399
tp400
a(g1
(g5
g8
tp401
Rp402
g1
(g5
g8
tp403
Rp404
g1
(g5
g8
tp405
Rp406
tp407
a(g1
(g5
g8
tp408
Rp409
g1
(g5
g8
tp410
Rp411
g1
(g5
g8
tp412
Rp413
tp414
a(g1
(g5
g8
tp415
Rp416
g1
(g5
g8
tp417
Rp418
g1
(g5
g8
tp419
Rp420
tp421
a(g1
(g5
g8
tp422
Rp423
g1
(g5
g8
tp424
Rp425
g1
(g5
g8
tp426
Rp427
tp428
a(g1
(g5
g8
tp429
Rp430
g1
(g5
g8
tp431
Rp432
g1
(g5
g8
tp433
Rp434
tp435
a(g1
(g5
g8
tp436
Rp437
g1
(g5
g8
tp438
Rp439
g1
(g5
g8
tp440
Rp441
tp442
a(g1
(g5
g8
tp443
Rp444
g1
(g5
g8
tp445
Rp446
g1
(g5
g8
tp447
Rp448
tp449
a(g1
(g5
g8
tp450
Rp451
g1
(g5
g8
tp452
Rp453
g1
(g5
g8
tp454
Rp455
tp456
a(g1
(g5
g8
tp457
Rp458
g1
(g5
g8
tp459
Rp460
g1
(g5
g8
tp461
Rp462
tp463
a(g1
(g5
g8
tp464
Rp465
g1
(g5
S'\xff'
p466
tp467
Rp468
g1
(g5
g466
tp469
Rp470
tp471
a(g1
(g5
g8
tp472
Rp473
g1
(g5
g466
tp474
Rp475
g1
(g5
g466
tp476
Rp477
tp478
a(g1
(g5
g8
tp479
Rp480
g1
(g5
g466
tp481
Rp482
g1
(g5
g466
tp483
Rp484
tp485
a(g1
(g5
g8
tp486
Rp487
g1
(g5
g466
tp488
Rp489
g1
(g5
g466
tp490
Rp491
tp492
a(g1
(g5
g8
tp493
Rp494
g1
(g5
g466
tp495
Rp496
g1
(g5
g466
tp497
Rp498
tp499
a(g1
(g5
g8
tp500
Rp501
g1
(g5
g8
tp502
Rp503
g1
(g5
g8
tp504
Rp505
tp506
a(g1
(g5
g8
tp507
Rp508
g1
(g5
g8
tp509
Rp510
g1
(g5
g8
tp511
Rp512
tp513
a(g1
(g5
g8
tp514
Rp515
g1
(g5
g8
tp516
Rp517
g1
(g5
g8
tp518
Rp519
tp520
a(g1
(g5
g8
tp521
Rp522
g1
(g5
g8
tp523
Rp524
g1
(g5
g8
tp525
Rp526
tp527
a(g1
(g5
g8
tp528
Rp529
g1
(g5
g8
tp530
Rp531
g1
(g5
g8
tp532
Rp533
tp534
a(g1
(g5
g8
tp535
Rp536
g1
(g5
g8
tp537
Rp538
g1
(g5
g8
tp539
Rp540
tp541
a(g1
(g5
g8
tp542
Rp543
g1
(g5
g8
tp544
Rp545
g1
(g5
g8
tp546
Rp547
tp548
a(g1
(g5
g8
tp549
Rp550
g1
(g5
g8
tp551
Rp552
g1
(g5
g8
tp553
Rp554
tp555
a(g1
(g5
g8
tp556
Rp557
g1
(g5
g8
tp558
Rp559
g1
(g5
g8
tp560
Rp561
tp562
a(g1
(g5
g8
tp563
Rp564
g1
(g5
g8
tp565
Rp566
g1
(g5
g8
tp567
Rp568
tp569
a(g1
(g5
g8
tp570
Rp571
g1
(g5
g8
tp572
Rp573
g1
(g5
g8
tp574
Rp575
tp576
a(g1
(g5
g8
tp577
Rp578
g1
(g5
g8
tp579
Rp580
g1
(g5
g8
tp581
Rp582
tp583
a(g1
(g5
g8
tp584
Rp585
g1
(g5
g8
tp586
Rp587
g1
(g5
g8
tp588
Rp589
tp590
a(g1
(g5
g8
tp591
Rp592
g1
(g5
g8
tp593
Rp594
g1
(g5
g8
tp595
Rp596
tp597
a(g1
(g5
g8
tp598
Rp599
g1
(g5
g8
tp600
Rp601
g1
(g5
g8
tp602
Rp603
tp604
a(g1
(g5
g8
tp605
Rp606
g1
(g5
g8
tp607
Rp608
g1
(g5
g8
tp609
Rp610
tp611
a(g1
(g5
g8
tp612
Rp613
g1
(g5
g8
tp614
Rp615
g1
(g5
g8
tp616
Rp617
tp618
a(g1
(g5
g8
tp619
Rp620
g1
(g5
g8
tp621
Rp622
g1
(g5
g8
tp623
Rp624
tp625
a(g1
(g5
g8
tp626
Rp627
g1
(g5
g8
tp628
Rp629
g1
(g5
g8
tp630
Rp631
tp632
a(g1
(g5
g8
tp633
Rp634
g1
(g5
g8
tp635
Rp636
g1
(g5
g8
tp637
Rp638
tp639
a(g1
(g5
g8
tp640
Rp641
g1
(g5
g8
tp642
Rp643
g1
(g5
g8
tp644
Rp645
tp646
a(g1
(g5
g8
tp647
Rp648
g1
(g5
g8
tp649
Rp650
g1
(g5
g8
tp651
Rp652
tp653
a(g1
(g5
g8
tp654
Rp655
g1
(g5
g8
tp656
Rp657
g1
(g5
g8
tp658
Rp659
tp660
a(g1
(g5
g8
tp661
Rp662
g1
(g5
g8
tp663
Rp664
g1
(g5
g8
tp665
Rp666
tp667
a(g1
(g5
g8
tp668
Rp669
g1
(g5
g8
tp670
Rp671
g1
(g5
g8
tp672
Rp673
tp674
a(g1
(g5
g8
tp675
Rp676
g1
(g5
g8
tp677
Rp678
g1
(g5
g8
tp679
Rp680
tp681
a(g1
(g5
g8
tp682
Rp683
g1
(g5
g8
tp684
Rp685
g1
(g5
g8
tp686
Rp687
tp688
a(g1
(g5
g8
tp689
Rp690
g1
(g5
g8
tp691
Rp692
g1
(g5
g8
tp693
Rp694
tp695
a(g1
(g5
g8
tp696
Rp697
g1
(g5
g8
tp698
Rp699
g1
(g5
g8
tp700
Rp701
tp702
a(g1
(g5
g8
tp703
Rp704
g1
(g5
g8
tp705
Rp706
g1
(g5
g8
tp707
Rp708
tp709
a(g1
(g5
g8
tp710
Rp711
g1
(g5
g8
tp712
Rp713
g1
(g5
g8
tp714
Rp715
tp716
a(g1
(g5
g8
tp717
Rp718
g1
(g5
g8
tp719
Rp720
g1
(g5
g8
tp721
Rp722
tp723
a(g1
(g5
g8
tp724
Rp725
g1
(g5
g8
tp726
Rp727
g1
(g5
g8
tp728
Rp729
tp730
a(g1
(g5
g8
tp731
Rp732
g1
(g5
g8
tp733
Rp734
g1
(g5
g8
tp735
Rp736
tp737
a(g1
(g5
g8
tp738
Rp739
g1
(g5
g8
tp740
Rp741
g1
(g5
g8
tp742
Rp743
tp744
a(g1
(g5
g8
tp745
Rp746
g1
(g5
g8
tp747
Rp748
g1
(g5
g8
tp749
Rp750
tp751
a(g1
(g5
g8
tp752
Rp753
g1
(g5
g8
tp754
Rp755
g1
(g5
g8
tp756
Rp757
tp758
a(g1
(g5
g8
tp759
Rp760
g1
(g5
g8
tp761
Rp762
g1
(g5
g8
tp763
Rp764
tp765
a(g1
(g5
g8
tp766
Rp767
g1
(g5
g466
tp768
Rp769
g1
(g5
g466
tp770
Rp771
tp772
a(g1
(g5
g8
tp773
Rp774
g1
(g5
g466
tp775
Rp776
g1
(g5
g466
tp777
Rp778
tp779
a(g1
(g5
g8
tp780
Rp781
g1
(g5
g466
tp782
Rp783
g1
(g5
g466
tp784
Rp785
tp786
a(g1
(g5
g8
tp787
Rp788
g1
(g5
g466
tp789
Rp790
g1
(g5
g466
tp791
Rp792
tp793
a(g1
(g5
g8
tp794
Rp795
g1
(g5
g466
tp796
Rp797
g1
(g5
g466
tp798
Rp799
tp800
a(g1
(g5
g8
tp801
Rp802
g1
(g5
g466
tp803
Rp804
g1
(g5
g466
tp805
Rp806
tp807
a(g1
(g5
g8
tp808
Rp809
g1
(g5
g466
tp810
Rp811
g1
(g5
g466
tp812
Rp813
tp814
a(g1
(g5
g8
tp815
Rp816
g1
(g5
g466
tp817
Rp818
g1
(g5
g466
tp819
Rp820
tp821
a(g1
(g5
g8
tp822
Rp823
g1
(g5
g466
tp824
Rp825
g1
(g5
g466
tp826
Rp827
tp828
a(g1
(g5
g8
tp829
Rp830
g1
(g5
g8
tp831
Rp832
g1
(g5
g8
tp833
Rp834
tp835
a(g1
(g5
g8
tp836
Rp837
g1
(g5
g8
tp838
Rp839
g1
(g5
g8
tp840
Rp841
tp842
a(g1
(g5
g8
tp843
Rp844
g1
(g5
g8
tp845
Rp846
g1
(g5
g8
tp847
Rp848
tp849
a(g1
(g5
g8
tp850
Rp851
g1
(g5
g8
tp852
Rp853
g1
(g5
g8
tp854
Rp855
tp856
a(g1
(g5
g8
tp857
Rp858
g1
(g5
g8
tp859
Rp860
g1
(g5
g8
tp861
Rp862
tp863
a(g1
(g5
g8
tp864
Rp865
g1
(g5
g8
tp866
Rp867
g1
(g5
g8
tp868
Rp869
tp870
a(g1
(g5
g8
tp871
Rp872
g1
(g5
g8
tp873
Rp874
g1
(g5
g8
tp875
Rp876
tp877
a(g1
(g5
g8
tp878
Rp879
g1
(g5
g8
tp880
Rp881
g1
(g5
g8
tp882
Rp883
tp884
a(g1
(g5
g8
tp885
Rp886
g1
(g5
g8
tp887
Rp888
g1
(g5
g8
tp889
Rp890
tp891
a(g1
(g5
g8
tp892
Rp893
g1
(g5
g8
tp894
Rp895
g1
(g5
g8
tp896
Rp897
tp898
a(g1
(g5
g8
tp899
Rp900
g1
(g5
g8
tp901
Rp902
g1
(g5
g8
tp903
Rp904
tp905
a(g1
(g5
g8
tp906
Rp907
g1
(g5
g8
tp908
Rp909
g1
(g5
g8
tp910
Rp911
tp912
a(g1
(g5
g8
tp913
Rp914
g1
(g5
g8
tp915
Rp916
g1
(g5
g8
tp917
Rp918
tp919
a(g1
(g5
g8
tp920
Rp921
g1
(g5
g8
tp922
Rp923
g1
(g5
g8
tp924
Rp925
tp926
a(g1
(g5
g8
tp927
Rp928
g1
(g5
g8
tp929
Rp930
g1
(g5
g8
tp931
Rp932
tp933
a(g1
(g5
g8
tp934
Rp935
g1
(g5
g8
tp936
Rp937
g1
(g5
g8
tp938
Rp939
tp940
a(g1
(g5
g8
tp941
Rp942
g1
(g5
g8
tp943
Rp944
g1
(g5
g8
tp945
Rp946
tp947
a(g1
(g5
g8
tp948
Rp949
g1
(g5
g8
tp950
Rp951
g1
(g5
g8
tp952
Rp953
tp954
a(g1
(g5
g8
tp955
Rp956
g1
(g5
g8
tp957
Rp958
g1
(g5
g8
tp959
Rp960
tp961
a(g1
(g5
g8
tp962
Rp963
g1
(g5
g8
tp964
Rp965
g1
(g5
g8
tp966
Rp967
tp968
a(g1
(g5
g8
tp969
Rp970
g1
(g5
g8
tp971
Rp972
g1
(g5
g8
tp973
Rp974
tp975
a(g1
(g5
g8
tp976
Rp977
g1
(g5
g8
tp978
Rp979
g1
(g5
g8
tp980
Rp981
tp982
a(g1
(g5
g8
tp983
Rp984
g1
(g5
g8
tp985
Rp986
g1
(g5
g8
tp987
Rp988
tp989
a(g1
(g5
g8
tp990
Rp991
g1
(g5
g8
tp992
Rp993
g1
(g5
g8
tp994
Rp995
tp996
a(g1
(g5
g8
tp997
Rp998
g1
(g5
g8
tp999
Rp1000
g1
(g5
g8
tp1001
Rp1002
tp1003
a(g1
(g5
g8
tp1004
Rp1005
g1
(g5
g8
tp1006
Rp1007
g1
(g5
g8
tp1008
Rp1009
tp1010
a(g1
(g5
g8
tp1011
Rp1012
g1
(g5
g8
tp1013
Rp1014
g1
(g5
g8
tp1015
Rp1016
tp1017
a(g1
(g5
g8
tp1018
Rp1019
g1
(g5
g8
tp1020
Rp1021
g1
(g5
g8
tp1022
Rp1023
tp1024
a(g1
(g5
g8
tp1025
Rp1026
g1
(g5
g8
tp1027
Rp1028
g1
(g5
g8
tp1029
Rp1030
tp1031
a(g1
(g5
g8
tp1032
Rp1033
g1
(g5
g8
tp1034
Rp1035
g1
(g5
g8
tp1036
Rp1037
tp1038
a(g1
(g5
g8
tp1039
Rp1040
g1
(g5
g8
tp1041
Rp1042
g1
(g5
g8
tp1043
Rp1044
tp1045
a(g1
(g5
g8
tp1046
Rp1047
g1
(g5
g8
tp1048
Rp1049
g1
(g5
g8
tp1050
Rp1051
tp1052
a(g1
(g5
g8
tp1053
Rp1054
g1
(g5
g8
tp1055
Rp1056
g1
(g5
g8
tp1057
Rp1058
tp1059
a(g1
(g5
g8
tp1060
Rp1061
g1
(g5
g8
tp1062
Rp1063
g1
(g5
g8
tp1064
Rp1065
tp1066
a(g1
(g5
g8
tp1067
Rp1068
g1
(g5
g8
tp1069
Rp1070
g1
(g5
g8
tp1071
Rp1072
tp1073
a(g1
(g5
g8
tp1074
Rp1075
g1
(g5
g466
tp1076
Rp1077
g1
(g5
g466
tp1078
Rp1079
tp1080
a(g1
(g5
g8
tp1081
Rp1082
g1
(g5
g466
tp1083
Rp1084
g1
(g5
g466
tp1085
Rp1086
tp1087
a(g1
(g5
g8
tp1088
Rp1089
g1
(g5
g466
tp1090
Rp1091
g1
(g5
g466
tp1092
Rp1093
tp1094
a(g1
(g5
g8
tp1095
Rp1096
g1
(g5
g466
tp1097
Rp1098
g1
(g5
g466
tp1099
Rp1100
tp1101
a(g1
(g5
g8
tp1102
Rp1103
g1
(g5
g466
tp1104
Rp1105
g1
(g5
g466
tp1106
Rp1107
tp1108
a(g1
(g5
g8
tp1109
Rp1110
g1
(g5
g466
tp1111
Rp1112
g1
(g5
g466
tp1113
Rp1114
tp1115
a(g1
(g5
g8
tp1116
Rp1117
g1
(g5
g466
tp1118
Rp1119
g1
(g5
g466
tp1120
Rp1121
tp1122
a(g1
(g5
g8
tp1123
Rp1124
g1
(g5
g466
tp1125
Rp1126
g1
(g5
g466
tp1127
Rp1128
tp1129
a(g1
(g5
g8
tp1130
Rp1131
g1
(g5
g466
tp1132
Rp1133
g1
(g5
g466
tp1134
Rp1135
tp1136
a(g1
(g5
g8
tp1137
Rp1138
g1
(g5
g466
tp1139
Rp1140
g1
(g5
g466
tp1141
Rp1142
tp1143
a(g1
(g5
g8
tp1144
Rp1145
g1
(g5
g466
tp1146
Rp1147
g1
(g5
g466
tp1148
Rp1149
tp1150
a(g1
(g5
g8
tp1151
Rp1152
g1
(g5
g8
tp1153
Rp1154
g1
(g5
g8
tp1155
Rp1156
tp1157
a(g1
(g5
g8
tp1158
Rp1159
g1
(g5
g8
tp1160
Rp1161
g1
(g5
g8
tp1162
Rp1163
tp1164
a(g1
(g5
g8
tp1165
Rp1166
g1
(g5
g8
tp1167
Rp1168
g1
(g5
g8
tp1169
Rp1170
tp1171
a(g1
(g5
g8
tp1172
Rp1173
g1
(g5
g8
tp1174
Rp1175
g1
(g5
g8
tp1176
Rp1177
tp1178
a(g1
(g5
g8
tp1179
Rp1180
g1
(g5
g8
tp1181
Rp1182
g1
(g5
g8
tp1183
Rp1184
tp1185
a(g1
(g5
g8
tp1186
Rp1187
g1
(g5
g8
tp1188
Rp1189
g1
(g5
g8
tp1190
Rp1191
tp1192
a(g1
(g5
g8
tp1193
Rp1194
g1
(g5
g8
tp1195
Rp1196
g1
(g5
g8
tp1197
Rp1198
tp1199
a(g1
(g5
g8
tp1200
Rp1201
g1
(g5
g8
tp1202
Rp1203
g1
(g5
g8
tp1204
Rp1205
tp1206
a(g1
(g5
g8
tp1207
Rp1208
g1
(g5
g8
tp1209
Rp1210
g1
(g5
g8
tp1211
Rp1212
tp1213
a(g1
(g5
g8
tp1214
Rp1215
g1
(g5
g8
tp1216
Rp1217
g1
(g5
g8
tp1218
Rp1219
tp1220
a(g1
(g5
g8
tp1221
Rp1222
g1
(g5
g8
tp1223
Rp1224
g1
(g5
g8
tp1225
Rp1226
tp1227
a(g1
(g5
g8
tp1228
Rp1229
g1
(g5
g8
tp1230
Rp1231
g1
(g5
g8
tp1232
Rp1233
tp1234
a(g1
(g5
g8
tp1235
Rp1236
g1
(g5
g8
tp1237
Rp1238
g1
(g5
g8
tp1239
Rp1240
tp1241
a(g1
(g5
g8
tp1242
Rp1243
g1
(g5
g8
tp1244
Rp1245
g1
(g5
g8
tp1246
Rp1247
tp1248
a(g1
(g5
g8
tp1249
Rp1250
g1
(g5
g8
tp1251
Rp1252
g1
(g5
g8
tp1253
Rp1254
tp1255
a(g1
(g5
g8
tp1256
Rp1257
g1
(g5
g8
tp1258
Rp1259
g1
(g5
g8
tp1260
Rp1261
tp1262
a(g1
(g5
g466
tp1263
Rp1264
g1
(g5
S'!'
p1265
tp1266
Rp1267
g1
(g5
g1265
tp1268
Rp1269
tp1270
a(g1
(g5
g8
tp1271
Rp1272
g1
(g5
g8
tp1273
Rp1274
g1
(g5
g8
tp1275
Rp1276
tp1277
a(g1
(g5
g8
tp1278
Rp1279
g1
(g5
g8
tp1280
Rp1281
g1
(g5
g8
tp1282
Rp1283
tp1284
a(g1
(g5
g8
tp1285
Rp1286
g1
(g5
g8
tp1287
Rp1288
g1
(g5
g8
tp1289
Rp1290
tp1291
a(g1
(g5
g8
tp1292
Rp1293
g1
(g5
g8
tp1294
Rp1295
g1
(g5
g8
tp1296
Rp1297
tp1298
a(g1
(g5
g8
tp1299
Rp1300
g1
(g5
g8
tp1301
Rp1302
g1
(g5
g8
tp1303
Rp1304
tp1305
a(g1
(g5
g8
tp1306
Rp1307
g1
(g5
g8
tp1308
Rp1309
g1
(g5
g8
tp1310
Rp1311
tp1312
a(g1
(g5
g8
tp1313
Rp1314
g1
(g5
g8
tp1315
Rp1316
g1
(g5
g8
tp1317
Rp1318
tp1319
a(g1
(g5
g8
tp1320
Rp1321
g1
(g5
g8
tp1322
Rp1323
g1
(g5
g8
tp1324
Rp1325
tp1326
a(g1
(g5
g8
tp1327
Rp1328
g1
(g5
g8
tp1329
Rp1330
g1
(g5
g8
tp1331
Rp1332
tp1333
a(g1
(g5
g8
tp1334
Rp1335
g1
(g5
g8
tp1336
Rp1337
g1
(g5
g8
tp1338
Rp1339
tp1340
a(g1
(g5
g8
tp1341
Rp1342
g1
(g5
g8
tp1343
Rp1344
g1
(g5
g8
tp1345
Rp1346
tp1347
a(g1
(g5
g8
tp1348
Rp1349
g1
(g5
g8
tp1350
Rp1351
g1
(g5
g8
tp1352
Rp1353
tp1354
a(g1
(g5
g8
tp1355
Rp1356
g1
(g5
g8
tp1357
Rp1358
g1
(g5
g8
tp1359
Rp1360
tp1361
a(g1
(g5
g8
tp1362
Rp1363
g1
(g5
g8
tp1364
Rp1365
g1
(g5
g8
tp1366
Rp1367
tp1368
a(g1
(g5
g8
tp1369
Rp1370
g1
(g5
g8
tp1371
Rp1372
g1
(g5
g8
tp1373
Rp1374
tp1375
a(g1
(g5
g8
tp1376
Rp1377
g1
(g5
g8
tp1378
Rp1379
g1
(g5
g8
tp1380
Rp1381
tp1382
a(g1
(g5
g8
tp1383
Rp1384
g1
(g5
g8
tp1385
Rp1386
g1
(g5
g8
tp1387
Rp1388
tp1389
a(g1
(g5
g8
tp1390
Rp1391
g1
(g5
g466
tp1392
Rp1393
g1
(g5
g466
tp1394
Rp1395
tp1396
a(g1
(g5
g8
tp1397
Rp1398
g1
(g5
g466
tp1399
Rp1400
g1
(g5
g466
tp1401
Rp1402
tp1403
a(g1
(g5
g8
tp1404
Rp1405
g1
(g5
g466
tp1406
Rp1407
g1
(g5
g466
tp1408
Rp1409
tp1410
a(g1
(g5
g8
tp1411
Rp1412
g1
(g5
g466
tp1413
Rp1414
g1
(g5
g466
tp1415
Rp1416
tp1417
a(g1
(g5
g8
tp1418
Rp1419
g1
(g5
g466
tp1420
Rp1421
g1
(g5
g466
tp1422
Rp1423
tp1424
a(g1
(g5
g8
tp1425
Rp1426
g1
(g5
g466
tp1427
Rp1428
g1
(g5
g466
tp1429
Rp1430
tp1431
a(g1
(g5
g8
tp1432
Rp1433
g1
(g5
g466
tp1434
Rp1435
g1
(g5
g466
tp1436
Rp1437
tp1438
a(g1
(g5
g8
tp1439
Rp1440
g1
(g5
g466
tp1441
Rp1442
g1
(g5
g466
tp1443
Rp1444
tp1445
a(g1
(g5
g8
tp1446
Rp1447
g1
(g5
g466
tp1448
Rp1449
g1
(g5
g466
tp1450
Rp1451
tp1452
a(g1
(g5
g8
tp1453
Rp1454
g1
(g5
g466
tp1455
Rp1456
g1
(g5
g466
tp1457
Rp1458
tp1459
a(g1
(g5
g8
tp1460
Rp1461
g1
(g5
g466
tp1462
Rp1463
g1
(g5
g466
tp1464
Rp1465
tp1466
a(g1
(g5
g8
tp1467
Rp1468
g1
(g5
g8
tp1469
Rp1470
g1
(g5
g8
tp1471
Rp1472
tp1473
a(g1
(g5
g8
tp1474
Rp1475
g1
(g5
g8
tp1476
Rp1477
g1
(g5
g8
tp1478
Rp1479
tp1480
a(g1
(g5
g8
tp1481
Rp1482
g1
(g5
g8
tp1483
Rp1484
g1
(g5
g8
tp1485
Rp1486
tp1487
a(g1
(g5
g8
tp1488
Rp1489
g1
(g5
g8
tp1490
Rp1491
g1
(g5
g8
tp1492
Rp1493
tp1494
a(g1
(g5
g8
tp1495
Rp1496
g1
(g5
g8
tp1497
Rp1498
g1
(g5
g8
tp1499
Rp1500
tp1501
a(g1
(g5
g8
tp1502
Rp1503
g1
(g5
g8
tp1504
Rp1505
g1
(g5
g8
tp1506
Rp1507
tp1508
a(g1
(g5
g8
tp1509
Rp1510
g1
(g5
g8
tp1511
Rp1512
g1
(g5
g8
tp1513
Rp1514
tp1515
a(g1
(g5
g8
tp1516
Rp1517
g1
(g5
g8
tp1518
Rp1519
g1
(g5
g8
tp1520
Rp1521
tp1522
a(g1
(g5
g8
tp1523
Rp1524
g1
(g5
g8
tp1525
Rp1526
g1
(g5
g8
tp1527
Rp1528
tp1529
a(g1
(g5
g8
tp1530
Rp1531
g1
(g5
g8
tp1532
Rp1533
g1
(g5
g8
tp1534
Rp1535
tp1536
a(g1
(g5
g8
tp1537
Rp1538
g1
(g5
g8
tp1539
Rp1540
g1
(g5
g8
tp1541
Rp1542
tp1543
a(g1
(g5
g8
tp1544
Rp1545
g1
(g5
g8
tp1546
Rp1547
g1
(g5
g8
tp1548
Rp1549
tp1550
a(g1
(g5
g8
tp1551
Rp1552
g1
(g5
g8
tp1553
Rp1554
g1
(g5
g8
tp1555
Rp1556
tp1557
a(g1
(g5
g8
tp1558
Rp1559
g1
(g5
g8
tp1560
Rp1561
g1
(g5
g8
tp1562
Rp1563
tp1564
a(g1
(g5
g8
tp1565
Rp1566
g1
(g5
g8
tp1567
Rp1568
g1
(g5
g8
tp1569
Rp1570
tp1571
a(g1
(g5
g466
tp1572
Rp1573
g1
(g5
g1265
tp1574
Rp1575
g1
(g5
g1265
tp1576
Rp1577
tp1578
a(g1
(g5
g466
tp1579
Rp1580
g1
(g5
g1265
tp1581
Rp1582
g1
(g5
g1265
tp1583
Rp1584
tp1585
a(g1
(g5
g8
tp1586
Rp1587
g1
(g5
g8
tp1588
Rp1589
g1
(g5
g8
tp1590
Rp1591
tp1592
a(g1
(g5
g8
tp1593
Rp1594
g1
(g5
g8
tp1595
Rp1596
g1
(g5
g8
tp1597
Rp1598
tp1599
a(g1
(g5
g8
tp1600
Rp1601
g1
(g5
g8
tp1602
Rp1603
g1
(g5
g8
tp1604
Rp1605
tp1606
a(g1
(g5
g8
tp1607
Rp1608
g1
(g5
g8
tp1609
Rp1610
g1
(g5
g8
tp1611
Rp1612
tp1613
a(g1
(g5
g8
tp1614
Rp1615
g1
(g5
g8
tp1616
Rp1617
g1
(g5
g8
tp1618
Rp1619
tp1620
a(g1
(g5
g8
tp1621
Rp1622
g1
(g5
g8
tp1623
Rp1624
g1
(g5
g8
tp1625
Rp1626
tp1627
a(g1
(g5
g8
tp1628
Rp1629
g1
(g5
g8
tp1630
Rp1631
g1
(g5
g8
tp1632
Rp1633
tp1634
a(g1
(g5
g8
tp1635
Rp1636
g1
(g5
g8
tp1637
Rp1638
g1
(g5
g8
tp1639
Rp1640
tp1641
a(g1
(g5
g8
tp1642
Rp1643
g1
(g5
g8
tp1644
Rp1645
g1
(g5
g8
tp1646
Rp1647
tp1648
a(g1
(g5
g8
tp1649
Rp1650
g1
(g5
g8
tp1651
Rp1652
g1
(g5
g8
tp1653
Rp1654
tp1655
a(g1
(g5
g8
tp1656
Rp1657
g1
(g5
g8
tp1658
Rp1659
g1
(g5
g8
tp1660
Rp1661
tp1662
a(g1
(g5
g8
tp1663
Rp1664
g1
(g5
g8
tp1665
Rp1666
g1
(g5
g8
tp1667
Rp1668
tp1669
a(g1
(g5
g8
tp1670
Rp1671
g1
(g5
g8
tp1672
Rp1673
g1
(g5
g8
tp1674
Rp1675
tp1676
a(g1
(g5
g8
tp1677
Rp1678
g1
(g5
g8
tp1679
Rp1680
g1
(g5
g8
tp1681
Rp1682
tp1683
a(g1
(g5
g8
tp1684
Rp1685
g1
(g5
g8
tp1686
Rp1687
g1
(g5
g8
tp1688
Rp1689
tp1690
a(g1
(g5
g8
tp1691
Rp1692
g1
(g5
g8
tp1693
Rp1694
g1
(g5
g8
tp1695
Rp1696
tp1697
a(g1
(g5
g8
tp1698
Rp1699
g1
(g5
g466
tp1700
Rp1701
g1
(g5
g466
tp1702
Rp1703
tp1704
a(g1
(g5
g8
tp1705
Rp1706
g1
(g5
g466
tp1707
Rp1708
g1
(g5
g466
tp1709
Rp1710
tp1711
a(g1
(g5
g8
tp1712
Rp1713
g1
(g5
g466
tp1714
Rp1715
g1
(g5
g466
tp1716
Rp1717
tp1718
a(g1
(g5
g8
tp1719
Rp1720
g1
(g5
g466
tp1721
Rp1722
g1
(g5
g466
tp1723
Rp1724
tp1725
a(g1
(g5
g8
tp1726
Rp1727
g1
(g5
g466
tp1728
Rp1729
g1
(g5
g466
tp1730
Rp1731
tp1732
a(g1
(g5
g8
tp1733
Rp1734
g1
(g5
g466
tp1735
Rp1736
g1
(g5
g466
tp1737
Rp1738
tp1739
a(g1
(g5
g8
tp1740
Rp1741
g1
(g5
g466
tp1742
Rp1743
g1
(g5
g466
tp1744
Rp1745
tp1746
a(g1
(g5
g8
tp1747
Rp1748
g1
(g5
g466
tp1749
Rp1750
g1
(g5
g466
tp1751
Rp1752
tp1753
a(g1
(g5
g8
tp1754
Rp1755
g1
(g5
g466
tp1756
Rp1757
g1
(g5
g466
tp1758
Rp1759
tp1760
a(g1
(g5
g8
tp1761
Rp1762
g1
(g5
g466
tp1763
Rp1764
g1
(g5
g466
tp1765
Rp1766
tp1767
a(g1
(g5
g8
tp1768
Rp1769
g1
(g5
g8
tp1770
Rp1771
g1
(g5
g8
tp1772
Rp1773
tp1774
a(g1
(g5
g8
tp1775
Rp1776
g1
(g5
g8
tp1777
Rp1778
g1
(g5
g8
tp1779
Rp1780
tp1781
a(g1
(g5
g8
tp1782
Rp1783
g1
(g5
g8
tp1784
Rp1785
g1
(g5
g8
tp1786
Rp1787
tp1788
a(g1
(g5
g8
tp1789
Rp1790
g1
(g5
g8
tp1791
Rp1792
g1
(g5
g8
tp1793
Rp1794
tp1795
a(g1
(g5
g8
tp1796
Rp1797
g1
(g5
g8
tp1798
Rp1799
g1
(g5
g8
tp1800
Rp1801
tp1802
a(g1
(g5
g8
tp1803
Rp1804
g1
(g5
g8
tp1805
Rp1806
g1
(g5
g8
tp1807
Rp1808
tp1809
a(g1
(g5
g8
tp1810
Rp1811
g1
(g5
g8
tp1812
Rp1813
g1
(g5
g8
tp1814
Rp1815
tp1816
a(g1
(g5
g8
tp1817
Rp1818
g1
(g5
g8
tp1819
Rp1820
g1
(g5
g8
tp1821
Rp1822
tp1823
a(g1
(g5
g8
tp1824
Rp1825
g1
(g5
g8
tp1826
Rp1827
g1
(g5
g8
tp1828
Rp1829
tp1830
a(g1
(g5
g8
tp1831
Rp1832
g1
(g5
g8
tp1833
Rp1834
g1
(g5
g8
tp1835
Rp1836
tp1837
a(g1
(g5
g8
tp1838
Rp1839
g1
(g5
g8
tp1840
Rp1841
g1
(g5
g8
tp1842
Rp1843
tp1844
a(g1
(g5
g8
tp1845
Rp1846
g1
(g5
g8
tp1847
Rp1848
g1
(g5
g8
tp1849
Rp1850
tp1851
a(g1
(g5
g8
tp1852
Rp1853
g1
(g5
g8
tp1854
Rp1855
g1
(g5
g8
tp1856
Rp1857
tp1858
a(g1
(g5
g8
tp1859
Rp1860
g1
(g5
g8
tp1861
Rp1862
g1
(g5
g8
tp1863
Rp1864
tp1865
a(g1
(g5
g8
tp1866
Rp1867
g1
(g5
g8
tp1868
Rp1869
g1
(g5
g8
tp1870
Rp1871
tp1872
a(g1
(g5
g8
tp1873
Rp1874
g1
(g5
g8
tp1875
Rp1876
g1
(g5
g8
tp1877
Rp1878
tp1879
a(g1
(g5
g8
tp1880
Rp1881
g1
(g5
g8
tp1882
Rp1883
g1
(g5
g8
tp1884
Rp1885
tp1886
a(g1
(g5
g466
tp1887
Rp1888
g1
(g5
g1265
tp1889
Rp1890
g1
(g5
g1265
tp1891
Rp1892
tp1893
a(g1
(g5
g466
tp1894
Rp1895
g1
(g5
g1265
tp1896
Rp1897
g1
(g5
g1265
tp1898
Rp1899
tp1900
a(g1
(g5
g8
tp1901
Rp1902
g1
(g5
g8
tp1903
Rp1904
g1
(g5
g8
tp1905
Rp1906
tp1907
a(g1
(g5
g8
tp1908
Rp1909
g1
(g5
g8
tp1910
Rp1911
g1
(g5
g8
tp1912
Rp1913
tp1914
a(g1
(g5
g8
tp1915
Rp1916
g1
(g5
g8
tp1917
Rp1918
g1
(g5
g8
tp1919
Rp1920
tp1921
a(g1
(g5
g8
tp1922
Rp1923
g1
(g5
g8
tp1924
Rp1925
g1
(g5
g8
tp1926
Rp1927
tp1928
a(g1
(g5
g8
tp1929
Rp1930
g1
(g5
g8
tp1931
Rp1932
g1
(g5
g8
tp1933
Rp1934
tp1935
a(g1
(g5
g8
tp1936
Rp1937
g1
(g5
g8
tp1938
Rp1939
g1
(g5
g8
tp1940
Rp1941
tp1942
a(g1
(g5
g8
tp1943
Rp1944
g1
(g5
g8
tp1945
Rp1946
g1
(g5
g8
tp1947
Rp1948
tp1949
a(g1
(g5
g8
tp1950
Rp1951
g1
(g5
g8
tp1952
Rp1953
g1
(g5
g8
tp1954
Rp1955
tp1956
a(g1
(g5
g8
tp1957
Rp1958
g1
(g5
g8
tp1959
Rp1960
g1
(g5
g8
tp1961
Rp1962
tp1963
a(g1
(g5
g8
tp1964
Rp1965
g1
(g5
g8
tp1966
Rp1967
g1
(g5
g8
tp1968
Rp1969
tp1970
a(g1
(g5
g8
tp1971
Rp1972
g1
(g5
g8
tp1973
Rp1974
g1
(g5
g8
tp1975
Rp1976
tp1977
a(g1
(g5
g8
tp1978
Rp1979
g1
(g5
g8
tp1980
Rp1981
g1
(g5
g8
tp1982
Rp1983
tp1984
a(g1
(g5
g8
tp1985
Rp1986
g1
(g5
g8
tp1987
Rp1988
g1
(g5
g8
tp1989
Rp1990
tp1991
a(g1
(g5
g8
tp1992
Rp1993
g1
(g5
g8
tp1994
Rp1995
g1
(g5
g8
tp1996
Rp1997
tp1998
a(g1
(g5
g8
tp1999
Rp2000
g1
(g5
g8
tp2001
Rp2002
g1
(g5
g8
tp2003
Rp2004
tp2005
a(g1
(g5
g8
tp2006
Rp2007
g1
(g5
g8
tp2008
Rp2009
g1
(g5
g8
tp2010
Rp2011
tp2012
a(g1
(g5
g8
tp2013
Rp2014
g1
(g5
g466
tp2015
Rp2016
g1
(g5
g466
tp2017
Rp2018
tp2019
a(g1
(g5
g8
tp2020
Rp2021
g1
(g5
g466
tp2022
Rp2023
g1
(g5
g466
tp2024
Rp2025
tp2026
a(g1
(g5
g8
tp2027
Rp2028
g1
(g5
g466
tp2029
Rp2030
g1
(g5
g466
tp2031
Rp2032
tp2033
a(g1
(g5
g8
tp2034
Rp2035
g1
(g5
g466
tp2036
Rp2037
g1
(g5
g466
tp2038
Rp2039
tp2040
a(g1
(g5
g8
tp2041
Rp2042
g1
(g5
g466
tp2043
Rp2044
g1
(g5
g466
tp2045
Rp2046
tp2047
a(g1
(g5
g8
tp2048
Rp2049
g1
(g5
g466
tp2050
Rp2051
g1
(g5
g466
tp2052
Rp2053
tp2054
a(g1
(g5
g8
tp2055
Rp2056
g1
(g5
g466
tp2057
Rp2058
g1
(g5
g466
tp2059
Rp2060
tp2061
a(g1
(g5
g8
tp2062
Rp2063
g1
(g5
g8
tp2064
Rp2065
g1
(g5
g8
tp2066
Rp2067
tp2068
a(g1
(g5
g8
tp2069
Rp2070
g1
(g5
g8
tp2071
Rp2072
g1
(g5
g8
tp2073
Rp2074
tp2075
a(g1
(g5
g8
tp2076
Rp2077
g1
(g5
g8
tp2078
Rp2079
g1
(g5
g8
tp2080
Rp2081
tp2082
a(g1
(g5
g8
tp2083
Rp2084
g1
(g5
g8
tp2085
Rp2086
g1
(g5
g8
tp2087
Rp2088
tp2089
a(g1
(g5
g8
tp2090
Rp2091
g1
(g5
g8
tp2092
Rp2093
g1
(g5
g8
tp2094
Rp2095
tp2096
a(g1
(g5
g8
tp2097
Rp2098
g1
(g5
g8
tp2099
Rp2100
g1
(g5
g8
tp2101
Rp2102
tp2103
a(g1
(g5
g8
tp2104
Rp2105
g1
(g5
g8
tp2106
Rp2107
g1
(g5
g8
tp2108
Rp2109
tp2110
a(g1
(g5
g8
tp2111
Rp2112
g1
(g5
g8
tp2113
Rp2114
g1
(g5
g8
tp2115
Rp2116
tp2117
a(g1
(g5
g8
tp2118
Rp2119
g1
(g5
g8
tp2120
Rp2121
g1
(g5
g8
tp2122
Rp2123
tp2124
a(g1
(g5
g8
tp2125
Rp2126
g1
(g5
g8
tp2127
Rp2128
g1
(g5
g8
tp2129
Rp2130
tp2131
a(g1
(g5
g8
tp2132
Rp2133
g1
(g5
g8
tp2134
Rp2135
g1
(g5
g8
tp2136
Rp2137
tp2138
a(g1
(g5
g8
tp2139
Rp2140
g1
(g5
g8
tp2141
Rp2142
g1
(g5
g8
tp2143
Rp2144
tp2145
a(g1
(g5
g8
tp2146
Rp2147
g1
(g5
g8
tp2148
Rp2149
g1
(g5
g8
tp2150
Rp2151
tp2152
a(g1
(g5
g8
tp2153
Rp2154
g1
(g5
g8
tp2155
Rp2156
g1
(g5
g8
tp2157
Rp2158
tp2159
a(g1
(g5
g8
tp2160
Rp2161
g1
(g5
g8
tp2162
Rp2163
g1
(g5
g8
tp2164
Rp2165
tp2166
a(g1
(g5
g8
tp2167
Rp2168
g1
(g5
g8
tp2169
Rp2170
g1
(g5
g8
tp2171
Rp2172
tp2173
a(g1
(g5
g8
tp2174
Rp2175
g1
(g5
g8
tp2176
Rp2177
g1
(g5
g8
tp2178
Rp2179
tp2180
a(g1
(g5
g8
tp2181
Rp2182
g1
(g5
g8
tp2183
Rp2184
g1
(g5
g8
tp2185
Rp2186
tp2187
a(g1
(g5
g8
tp2188
Rp2189
g1
(g5
g8
tp2190
Rp2191
g1
(g5
g8
tp2192
Rp2193
tp2194
a(g1
(g5
g8
tp2195
Rp2196
g1
(g5
g8
tp2197
Rp2198
g1
(g5
g8
tp2199
Rp2200
tp2201
a(g1
(g5
g466
tp2202
Rp2203
g1
(g5
g1265
tp2204
Rp2205
g1
(g5
g1265
tp2206
Rp2207
tp2208
a(g1
(g5
g466
tp2209
Rp2210
g1
(g5
g1265
tp2211
Rp2212
g1
(g5
g1265
tp2213
Rp2214
tp2215
a(g1
(g5
g8
tp2216
Rp2217
g1
(g5
g8
tp2218
Rp2219
g1
(g5
g8
tp2220
Rp2221
tp2222
a(g1
(g5
g8
tp2223
Rp2224
g1
(g5
g8
tp2225
Rp2226
g1
(g5
g8
tp2227
Rp2228
tp2229
a(g1
(g5
g8
tp2230
Rp2231
g1
(g5
g8
tp2232
Rp2233
g1
(g5
g8
tp2234
Rp2235
tp2236
a(g1
(g5
g8
tp2237
Rp2238
g1
(g5
g8
tp2239
Rp2240
g1
(g5
g8
tp2241
Rp2242
tp2243
a(g1
(g5
g8
tp2244
Rp2245
g1
(g5
g8
tp2246
Rp2247
g1
(g5
g8
tp2248
Rp2249
tp2250
a(g1
(g5
g8
tp2251
Rp2252
g1
(g5
g8
tp2253
Rp2254
g1
(g5
g8
tp2255
Rp2256
tp2257
a(g1
(g5
g8
tp2258
Rp2259
g1
(g5
g8
tp2260
Rp2261
g1
(g5
g8
tp2262
Rp2263
tp2264
a(g1
(g5
g8
tp2265
Rp2266
g1
(g5
g8
tp2267
Rp2268
g1
(g5
g8
tp2269
Rp2270
tp2271
a(g1
(g5
g8
tp2272
Rp2273
g1
(g5
g8
tp2274
Rp2275
g1
(g5
g8
tp2276
Rp2277
tp2278
a(g1
(g5
g8
tp2279
Rp2280
g1
(g5
g8
tp2281
Rp2282
g1
(g5
g8
tp2283
Rp2284
tp2285
a(g1
(g5
g8
tp2286
Rp2287
g1
(g5
g8
tp2288
Rp2289
g1
(g5
g8
tp2290
Rp2291
tp2292
a(g1
(g5
g8
tp2293
Rp2294
g1
(g5
g8
tp2295
Rp2296
g1
(g5
g8
tp2297
Rp2298
tp2299
a(g1
(g5
g8
tp2300
Rp2301
g1
(g5
g8
tp2302
Rp2303
g1
(g5
g8
tp2304
Rp2305
tp2306
a(g1
(g5
g8
tp2307
Rp2308
g1
(g5
g8
tp2309
Rp2310
g1
(g5
g8
tp2311
Rp2312
tp2313
a(g1
(g5
g8
tp2314
Rp2315
g1
(g5
g8
tp2316
Rp2317
g1
(g5
g8
tp2318
Rp2319
tp2320
a(g1
(g5
g8
tp2321
Rp2322
g1
(g5
g8
tp2323
Rp2324
g1
(g5
g8
tp2325
Rp2326
tp2327
a(g1
(g5
g8
tp2328
Rp2329
g1
(g5
g466
tp2330
Rp2331
g1
(g5
g466
tp2332
Rp2333
tp2334
a(g1
(g5
g8
tp2335
Rp2336
g1
(g5
g466
tp2337
Rp2338
g1
(g5
g466
tp2339
Rp2340
tp2341
a(g1
(g5
g8
tp2342
Rp2343
g1
(g5
g466
tp2344
Rp2345
g1
(g5
g466
tp2346
Rp2347
tp2348
a(g1
(g5
g8
tp2349
Rp2350
g1
(g5
g466
tp2351
Rp2352
g1
(g5
g466
tp2353
Rp2354
tp2355
a(g1
(g5
g8
tp2356
Rp2357
g1
(g5
g8
tp2358
Rp2359
g1
(g5
g8
tp2360
Rp2361
tp2362
a(g1
(g5
g8
tp2363
Rp2364
g1
(g5
g8
tp2365
Rp2366
g1
(g5
g8
tp2367
Rp2368
tp2369
a(g1
(g5
g8
tp2370
Rp2371
g1
(g5
g8
tp2372
Rp2373
g1
(g5
g8
tp2374
Rp2375
tp2376
a(g1
(g5
g8
tp2377
Rp2378
g1
(g5
g8
tp2379
Rp2380
g1
(g5
g8
tp2381
Rp2382
tp2383
a(g1
(g5
g8
tp2384
Rp2385
g1
(g5
g8
tp2386
Rp2387
g1
(g5
g8
tp2388
Rp2389
tp2390
a(g1
(g5
g8
tp2391
Rp2392
g1
(g5
g8
tp2393
Rp2394
g1
(g5
g8
tp2395
Rp2396
tp2397
a(g1
(g5
g8
tp2398
Rp2399
g1
(g5
g8
tp2400
Rp2401
g1
(g5
g8
tp2402
Rp2403
tp2404
a(g1
(g5
g8
tp2405
Rp2406
g1
(g5
g8
tp2407
Rp2408
g1
(g5
g8
tp2409
Rp2410
tp2411
a(g1
(g5
g8
tp2412
Rp2413
g1
(g5
g8
tp2414
Rp2415
g1
(g5
g8
tp2416
Rp2417
tp2418
a(g1
(g5
g8
tp2419
Rp2420
g1
(g5
g8
tp2421
Rp2422
g1
(g5
g8
tp2423
Rp2424
tp2425
a(g1
(g5
g8
tp2426
Rp2427
g1
(g5
g8
tp2428
Rp2429
g1
(g5
g8
tp2430
Rp2431
tp2432
a(g1
(g5
g8
tp2433
Rp2434
g1
(g5
g8
tp2435
Rp2436
g1
(g5
g8
tp2437
Rp2438
tp2439
a(g1
(g5
g8
tp2440
Rp2441
g1
(g5
g8
tp2442
Rp2443
g1
(g5
g8
tp2444
Rp2445
tp2446
a(g1
(g5
g8
tp2447
Rp2448
g1
(g5
g8
tp2449
Rp2450
g1
(g5
g8
tp2451
Rp2452
tp2453
a(g1
(g5
g8
tp2454
Rp2455
g1
(g5
g8
tp2456
Rp2457
g1
(g5
g8
tp2458
Rp2459
tp2460
a(g1
(g5
g8
tp2461
Rp2462
g1
(g5
g8
tp2463
Rp2464
g1
(g5
g8
tp2465
Rp2466
tp2467
a(g1
(g5
g8
tp2468
Rp2469
g1
(g5
g8
tp2470
Rp2471
g1
(g5
g8
tp2472
Rp2473
tp2474
a(g1
(g5
g8
tp2475
Rp2476
g1
(g5
g8
tp2477
Rp2478
g1
(g5
g8
tp2479
Rp2480
tp2481
a(g1
(g5
g8
tp2482
Rp2483
g1
(g5
g8
tp2484
Rp2485
g1
(g5
g8
tp2486
Rp2487
tp2488
a(g1
(g5
g8
tp2489
Rp2490
g1
(g5
g8
tp2491
Rp2492
g1
(g5
g8
tp2493
Rp2494
tp2495
a(g1
(g5
g8
tp2496
Rp2497
g1
(g5
g8
tp2498
Rp2499
g1
(g5
g8
tp2500
Rp2501
tp2502
a(g1
(g5
g8
tp2503
Rp2504
g1
(g5
g8
tp2505
Rp2506
g1
(g5
g8
tp2507
Rp2508
tp2509
a(g1
(g5
g466
tp2510
Rp2511
g1
(g5
g1265
tp2512
Rp2513
g1
(g5
g1265
tp2514
Rp2515
tp2516
a(g1
(g5
g466
tp2517
Rp2518
g1
(g5
g1265
tp2519
Rp2520
g1
(g5
g1265
tp2521
Rp2522
tp2523
a(g1
(g5
g466
tp2524
Rp2525
g1
(g5
g1265
tp2526
Rp2527
g1
(g5
g1265
tp2528
Rp2529
tp2530
a(g1
(g5
g8
tp2531
Rp2532
g1
(g5
g8
tp2533
Rp2534
g1
(g5
g8
tp2535
Rp2536
tp2537
a(g1
(g5
g8
tp2538
Rp2539
g1
(g5
g8
tp2540
Rp2541
g1
(g5
g8
tp2542
Rp2543
tp2544
a(g1
(g5
g8
tp2545
Rp2546
g1
(g5
g8
tp2547
Rp2548
g1
(g5
g8
tp2549
Rp2550
tp2551
a(g1
(g5
g8
tp2552
Rp2553
g1
(g5
g8
tp2554
Rp2555
g1
(g5
g8
tp2556
Rp2557
tp2558
a(g1
(g5
g8
tp2559
Rp2560
g1
(g5
g8
tp2561
Rp2562
g1
(g5
g8
tp2563
Rp2564
tp2565
a(g1
(g5
g8
tp2566
Rp2567
g1
(g5
g8
tp2568
Rp2569
g1
(g5
g8
tp2570
Rp2571
tp2572
a(g1
(g5
g8
tp2573
Rp2574
g1
(g5
g8
tp2575
Rp2576
g1
(g5
g8
tp2577
Rp2578
tp2579
a(g1
(g5
g8
tp2580
Rp2581
g1
(g5
g8
tp2582
Rp2583
g1
(g5
g8
tp2584
Rp2585
tp2586
a(g1
(g5
g8
tp2587
Rp2588
g1
(g5
g8
tp2589
Rp2590
g1
(g5
g8
tp2591
Rp2592
tp2593
a(g1
(g5
g8
tp2594
Rp2595
g1
(g5
g8
tp2596
Rp2597
g1
(g5
g8
tp2598
Rp2599
tp2600
a(g1
(g5
g8
tp2601
Rp2602
g1
(g5
g8
tp2603
Rp2604
g1
(g5
g8
tp2605
Rp2606
tp2607
a(g1
(g5
g8
tp2608
Rp2609
g1
(g5
g8
tp2610
Rp2611
g1
(g5
g8
tp2612
Rp2613
tp2614
a(g1
(g5
g8
tp2615
Rp2616
g1
(g5
g8
tp2617
Rp2618
g1
(g5
g8
tp2619
Rp2620
tp2621
a(g1
(g5
g8
tp2622
Rp2623
g1
(g5
g8
tp2624
Rp2625
g1
(g5
g8
tp2626
Rp2627
tp2628
a(g1
(g5
g8
tp2629
Rp2630
g1
(g5
g8
tp2631
Rp2632
g1
(g5
g8
tp2633
Rp2634
tp2635
a(g1
(g5
g8
tp2636
Rp2637
g1
(g5
g8
tp2638
Rp2639
g1
(g5
g8
tp2640
Rp2641
tp2642
a(g1
(g5
g8
tp2643
Rp2644
g1
(g5
g466
tp2645
Rp2646
g1
(g5
g466
tp2647
Rp2648
tp2649
a(g1
(g5
g8
tp2650
Rp2651
g1
(g5
g466
tp2652
Rp2653
g1
(g5
g466
tp2654
Rp2655
tp2656
a(g1
(g5
g8
tp2657
Rp2658
g1
(g5
g466
tp2659
Rp2660
g1
(g5
g466
tp2661
Rp2662
tp2663
a(g1
(g5
g8
tp2664
Rp2665
g1
(g5
g466
tp2666
Rp2667
g1
(g5
g466
tp2668
Rp2669
tp2670
a(g1
(g5
g8
tp2671
Rp2672
g1
(g5
g466
tp2673
Rp2674
g1
(g5
g466
tp2675
Rp2676
tp2677
a(g1
(g5
g8
tp2678
Rp2679
g1
(g5
g466
tp2680
Rp2681
g1
(g5
g466
tp2682
Rp2683
tp2684
a(g1
(g5
g8
tp2685
Rp2686
g1
(g5
g466
tp2687
Rp2688
g1
(g5
g466
tp2689
Rp2690
tp2691
a(g1
(g5
g8
tp2692
Rp2693
g1
(g5
g8
tp2694
Rp2695
g1
(g5
g8
tp2696
Rp2697
tp2698
a(g1
(g5
g8
tp2699
Rp2700
g1
(g5
g8
tp2701
Rp2702
g1
(g5
g8
tp2703
Rp2704
tp2705
a(g1
(g5
g8
tp2706
Rp2707
g1
(g5
g8
tp2708
Rp2709
g1
(g5
g8
tp2710
Rp2711
tp2712
a(g1
(g5
g8
tp2713
Rp2714
g1
(g5
g8
tp2715
Rp2716
g1
(g5
g8
tp2717
Rp2718
tp2719
a(g1
(g5
g8
tp2720
Rp2721
g1
(g5
g8
tp2722
Rp2723
g1
(g5
g8
tp2724
Rp2725
tp2726
a(g1
(g5
g8
tp2727
Rp2728
g1
(g5
g8
tp2729
Rp2730
g1
(g5
g8
tp2731
Rp2732
tp2733
a(g1
(g5
g8
tp2734
Rp2735
g1
(g5
g8
tp2736
Rp2737
g1
(g5
g8
tp2738
Rp2739
tp2740
a(g1
(g5
g8
tp2741
Rp2742
g1
(g5
g8
tp2743
Rp2744
g1
(g5
g8
tp2745
Rp2746
tp2747
a(g1
(g5
g8
tp2748
Rp2749
g1
(g5
g8
tp2750
Rp2751
g1
(g5
g8
tp2752
Rp2753
tp2754
a(g1
(g5
g8
tp2755
Rp2756
g1
(g5
g8
tp2757
Rp2758
g1
(g5
g8
tp2759
Rp2760
tp2761
a(g1
(g5
g8
tp2762
Rp2763
g1
(g5
g8
tp2764
Rp2765
g1
(g5
g8
tp2766
Rp2767
tp2768
a(g1
(g5
g8
tp2769
Rp2770
g1
(g5
g8
tp2771
Rp2772
g1
(g5
g8
tp2773
Rp2774
tp2775
a(g1
(g5
g8
tp2776
Rp2777
g1
(g5
g8
tp2778
Rp2779
g1
(g5
g8
tp2780
Rp2781
tp2782
a(g1
(g5
g8
tp2783
Rp2784
g1
(g5
g8
tp2785
Rp2786
g1
(g5
g8
tp2787
Rp2788
tp2789
a(g1
(g5
g8
tp2790
Rp2791
g1
(g5
g8
tp2792
Rp2793
g1
(g5
g8
tp2794
Rp2795
tp2796
a(g1
(g5
g8
tp2797
Rp2798
g1
(g5
g8
tp2799
Rp2800
g1
(g5
g8
tp2801
Rp2802
tp2803
a(g1
(g5
g8
tp2804
Rp2805
g1
(g5
g8
tp2806
Rp2807
g1
(g5
g8
tp2808
Rp2809
tp2810
a(g1
(g5
g8
tp2811
Rp2812
g1
(g5
g8
tp2813
Rp2814
g1
(g5
g8
tp2815
Rp2816
tp2817
a(g1
(g5
g8
tp2818
Rp2819
g1
(g5
g8
tp2820
Rp2821
g1
(g5
g8
tp2822
Rp2823
tp2824
a(g1
(g5
g466
tp2825
Rp2826
g1
(g5
g1265
tp2827
Rp2828
g1
(g5
g1265
tp2829
Rp2830
tp2831
a(g1
(g5
g466
tp2832
Rp2833
g1
(g5
g1265
tp2834
Rp2835
g1
(g5
g1265
tp2836
Rp2837
tp2838
a(g1
(g5
g466
tp2839
Rp2840
g1
(g5
g1265
tp2841
Rp2842
g1
(g5
g1265
tp2843
Rp2844
tp2845
a(g1
(g5
g8
tp2846
Rp2847
g1
(g5
g8
tp2848
Rp2849
g1
(g5
g8
tp2850
Rp2851
tp2852
a(g1
(g5
g8
tp2853
Rp2854
g1
(g5
g8
tp2855
Rp2856
g1
(g5
g8
tp2857
Rp2858
tp2859
a(g1
(g5
g8
tp2860
Rp2861
g1
(g5
g8
tp2862
Rp2863
g1
(g5
g8
tp2864
Rp2865
tp2866
a(g1
(g5
g8
tp2867
Rp2868
g1
(g5
g8
tp2869
Rp2870
g1
(g5
g8
tp2871
Rp2872
tp2873
a(g1
(g5
g8
tp2874
Rp2875
g1
(g5
g8
tp2876
Rp2877
g1
(g5
g8
tp2878
Rp2879
tp2880
a(g1
(g5
g8
tp2881
Rp2882
g1
(g5
g8
tp2883
Rp2884
g1
(g5
g8
tp2885
Rp2886
tp2887
a(g1
(g5
g8
tp2888
Rp2889
g1
(g5
g8
tp2890
Rp2891
g1
(g5
g8
tp2892
Rp2893
tp2894
a(g1
(g5
g8
tp2895
Rp2896
g1
(g5
g8
tp2897
Rp2898
g1
(g5
g8
tp2899
Rp2900
tp2901
a(g1
(g5
g8
tp2902
Rp2903
g1
(g5
g8
tp2904
Rp2905
g1
(g5
g8
tp2906
Rp2907
tp2908
a(g1
(g5
g8
tp2909
Rp2910
g1
(g5
g8
tp2911
Rp2912
g1
(g5
g8
tp2913
Rp2914
tp2915
a(g1
(g5
g8
tp2916
Rp2917
g1
(g5
g8
tp2918
Rp2919
g1
(g5
g8
tp2920
Rp2921
tp2922
a(g1
(g5
g8
tp2923
Rp2924
g1
(g5
g8
tp2925
Rp2926
g1
(g5
g8
tp2927
Rp2928
tp2929
a(g1
(g5
g8
tp2930
Rp2931
g1
(g5
g8
tp2932
Rp2933
g1
(g5
g8
tp2934
Rp2935
tp2936
a(g1
(g5
g8
tp2937
Rp2938
g1
(g5
g8
tp2939
Rp2940
g1
(g5
g8
tp2941
Rp2942
tp2943
a(g1
(g5
g8
tp2944
Rp2945
g1
(g5
g8
tp2946
Rp2947
g1
(g5
g8
tp2948
Rp2949
tp2950
a(g1
(g5
g8
tp2951
Rp2952
g1
(g5
g8
tp2953
Rp2954
g1
(g5
g8
tp2955
Rp2956
tp2957
a(g1
(g5
g8
tp2958
Rp2959
g1
(g5
g466
tp2960
Rp2961
g1
(g5
g466
tp2962
Rp2963
tp2964
a(g1
(g5
g8
tp2965
Rp2966
g1
(g5
g466
tp2967
Rp2968
g1
(g5
g466
tp2969
Rp2970
tp2971
a(g1
(g5
g8
tp2972
Rp2973
g1
(g5
g466
tp2974
Rp2975
g1
(g5
g466
tp2976
Rp2977
tp2978
a(g1
(g5
g8
tp2979
Rp2980
g1
(g5
g466
tp2981
Rp2982
g1
(g5
g466
tp2983
Rp2984
tp2985
a(g1
(g5
g8
tp2986
Rp2987
g1
(g5
g466
tp2988
Rp2989
g1
(g5
g466
tp2990
Rp2991
tp2992
a(g1
(g5
g8
tp2993
Rp2994
g1
(g5
g466
tp2995
Rp2996
g1
(g5
g466
tp2997
Rp2998
tp2999
a(g1
(g5
g8
tp3000
Rp3001
g1
(g5
g466
tp3002
Rp3003
g1
(g5
g466
tp3004
Rp3005
tp3006
a(g1
(g5
g8
tp3007
Rp3008
g1
(g5
g466
tp3009
Rp3010
g1
(g5
g466
tp3011
Rp3012
tp3013
a(g1
(g5
g8
tp3014
Rp3015
g1
(g5
g466
tp3016
Rp3017
g1
(g5
g466
tp3018
Rp3019
tp3020
a(g1
(g5
g8
tp3021
Rp3022
g1
(g5
g466
tp3023
Rp3024
g1
(g5
g466
tp3025
Rp3026
tp3027
a(g1
(g5
g8
tp3028
Rp3029
g1
(g5
g8
tp3030
Rp3031
g1
(g5
g8
tp3032
Rp3033
tp3034
a(g1
(g5
g8
tp3035
Rp3036
g1
(g5
g8
tp3037
Rp3038
g1
(g5
g8
tp3039
Rp3040
tp3041
a(g1
(g5
g8
tp3042
Rp3043
g1
(g5
g8
tp3044
Rp3045
g1
(g5
g8
tp3046
Rp3047
tp3048
a(g1
(g5
g8
tp3049
Rp3050
g1
(g5
g8
tp3051
Rp3052
g1
(g5
g8
tp3053
Rp3054
tp3055
a(g1
(g5
g8
tp3056
Rp3057
g1
(g5
g8
tp3058
Rp3059
g1
(g5
g8
tp3060
Rp3061
tp3062
a(g1
(g5
g8
tp3063
Rp3064
g1
(g5
g8
tp3065
Rp3066
g1
(g5
g8
tp3067
Rp3068
tp3069
a(g1
(g5
g8
tp3070
Rp3071
g1
(g5
g8
tp3072
Rp3073
g1
(g5
g8
tp3074
Rp3075
tp3076
a(g1
(g5
g8
tp3077
Rp3078
g1
(g5
g8
tp3079
Rp3080
g1
(g5
g8
tp3081
Rp3082
tp3083
a(g1
(g5
g8
tp3084
Rp3085
g1
(g5
g8
tp3086
Rp3087
g1
(g5
g8
tp3088
Rp3089
tp3090
a(g1
(g5
g8
tp3091
Rp3092
g1
(g5
g8
tp3093
Rp3094
g1
(g5
g8
tp3095
Rp3096
tp3097
a(g1
(g5
g8
tp3098
Rp3099
g1
(g5
g8
tp3100
Rp3101
g1
(g5
g8
tp3102
Rp3103
tp3104
a(g1
(g5
g8
tp3105
Rp3106
g1
(g5
g8
tp3107
Rp3108
g1
(g5
g8
tp3109
Rp3110
tp3111
a(g1
(g5
g8
tp3112
Rp3113
g1
(g5
g8
tp3114
Rp3115
g1
(g5
g8
tp3116
Rp3117
tp3118
a(g1
(g5
g8
tp3119
Rp3120
g1
(g5
g8
tp3121
Rp3122
g1
(g5
g8
tp3123
Rp3124
tp3125
a(g1
(g5
g8
tp3126
Rp3127
g1
(g5
g8
tp3128
Rp3129
g1
(g5
g8
tp3130
Rp3131
tp3132
a(g1
(g5
g8
tp3133
Rp3134
g1
(g5
g8
tp3135
Rp3136
g1
(g5
g8
tp3137
Rp3138
tp3139
a(g1
(g5
g466
tp3140
Rp3141
g1
(g5
g1265
tp3142
Rp3143
g1
(g5
g1265
tp3144
Rp3145
tp3146
a(g1
(g5
g466
tp3147
Rp3148
g1
(g5
g1265
tp3149
Rp3150
g1
(g5
g1265
tp3151
Rp3152
tp3153
a(g1
(g5
S'\xb0'
p3154
tp3155
Rp3156
g1
(g5
S'\xb9'
p3157
tp3158
Rp3159
g1
(g5
S'\xfa'
p3160
tp3161
Rp3162
tp3163
a(g1
(g5
g8
tp3164
Rp3165
g1
(g5
g8
tp3166
Rp3167
g1
(g5
g8
tp3168
Rp3169
tp3170
a(g1
(g5
g8
tp3171
Rp3172
g1
(g5
g8
tp3173
Rp3174
g1
(g5
g8
tp3175
Rp3176
tp3177
a(g1
(g5
g8
tp3178
Rp3179
g1
(g5
g8
tp3180
Rp3181
g1
(g5
g8
tp3182
Rp3183
tp3184
a(g1
(g5
g8
tp3185
Rp3186
g1
(g5
g8
tp3187
Rp3188
g1
(g5
g8
tp3189
Rp3190
tp3191
a(g1
(g5
g8
tp3192
Rp3193
g1
(g5
g8
tp3194
Rp3195
g1
(g5
g8
tp3196
Rp3197
tp3198
a(g1
(g5
g8
tp3199
Rp3200
g1
(g5
g8
tp3201
Rp3202
g1
(g5
g8
tp3203
Rp3204
tp3205
a(g1
(g5
g8
tp3206
Rp3207
g1
(g5
g8
tp3208
Rp3209
g1
(g5
g8
tp3210
Rp3211
tp3212
a(g1
(g5
g8
tp3213
Rp3214
g1
(g5
g8
tp3215
Rp3216
g1
(g5
g8
tp3217
Rp3218
tp3219
a(g1
(g5
g8
tp3220
Rp3221
g1
(g5
g8
tp3222
Rp3223
g1
(g5
g8
tp3224
Rp3225
tp3226
a(g1
(g5
g8
tp3227
Rp3228
g1
(g5
g8
tp3229
Rp3230
g1
(g5
g8
tp3231
Rp3232
tp3233
a(g1
(g5
g8
tp3234
Rp3235
g1
(g5
g8
tp3236
Rp3237
g1
(g5
g8
tp3238
Rp3239
tp3240
a(g1
(g5
g8
tp3241
Rp3242
g1
(g5
g8
tp3243
Rp3244
g1
(g5
g8
tp3245
Rp3246
tp3247
a(g1
(g5
g8
tp3248
Rp3249
g1
(g5
g8
tp3250
Rp3251
g1
(g5
g8
tp3252
Rp3253
tp3254
a(g1
(g5
g8
tp3255
Rp3256
g1
(g5
g8
tp3257
Rp3258
g1
(g5
g8
tp3259
Rp3260
tp3261
a(g1
(g5
g8
tp3262
Rp3263
g1
(g5
g8
tp3264
Rp3265
g1
(g5
g8
tp3266
Rp3267
tp3268
a(g1
(g5
g8
tp3269
Rp3270
g1
(g5
g8
tp3271
Rp3272
g1
(g5
g8
tp3273
Rp3274
tp3275
a(g1
(g5
g8
tp3276
Rp3277
g1
(g5
g8
tp3278
Rp3279
g1
(g5
g8
tp3280
Rp3281
tp3282
a(g1
(g5
g8
tp3283
Rp3284
g1
(g5
g466
tp3285
Rp3286
g1
(g5
g466
tp3287
Rp3288
tp3289
a(g1
(g5
g8
tp3290
Rp3291
g1
(g5
g466
tp3292
Rp3293
g1
(g5
g466
tp3294
Rp3295
tp3296
a(g1
(g5
g8
tp3297
Rp3298
g1
(g5
g466
tp3299
Rp3300
g1
(g5
g466
tp3301
Rp3302
tp3303
a(g1
(g5
g8
tp3304
Rp3305
g1
(g5
g466
tp3306
Rp3307
g1
(g5
g466
tp3308
Rp3309
tp3310
a(g1
(g5
g8
tp3311
Rp3312
g1
(g5
g466
tp3313
Rp3314
g1
(g5
g466
tp3315
Rp3316
tp3317
a(g1
(g5
g8
tp3318
Rp3319
g1
(g5
g466
tp3320
Rp3321
g1
(g5
g466
tp3322
Rp3323
tp3324
a(g1
(g5
g8
tp3325
Rp3326
g1
(g5
g466
tp3327
Rp3328
g1
(g5
g466
tp3329
Rp3330
tp3331
a(g1
(g5
g8
tp3332
Rp3333
g1
(g5
g466
tp3334
Rp3335
g1
(g5
g466
tp3336
Rp3337
tp3338
a(g1
(g5
g8
tp3339
Rp3340
g1
(g5
g466
tp3341
Rp3342
g1
(g5
g466
tp3343
Rp3344
tp3345
a(g1
(g5
g8
tp3346
Rp3347
g1
(g5
g466
tp3348
Rp3349
g1
(g5
g466
tp3350
Rp3351
tp3352
a(g1
(g5
g8
tp3353
Rp3354
g1
(g5
g466
tp3355
Rp3356
g1
(g5
g466
tp3357
Rp3358
tp3359
a(g1
(g5
g8
tp3360
Rp3361
g1
(g5
g8
tp3362
Rp3363
g1
(g5
g8
tp3364
Rp3365
tp3366
a(g1
(g5
g8
tp3367
Rp3368
g1
(g5
g8
tp3369
Rp3370
g1
(g5
g8
tp3371
Rp3372
tp3373
a(g1
(g5
g8
tp3374
Rp3375
g1
(g5
g8
tp3376
Rp3377
g1
(g5
g8
tp3378
Rp3379
tp3380
a(g1
(g5
g8
tp3381
Rp3382
g1
(g5
g8
tp3383
Rp3384
g1
(g5
g8
tp3385
Rp3386
tp3387
a(g1
(g5
g8
tp3388
Rp3389
g1
(g5
g8
tp3390
Rp3391
g1
(g5
g8
tp3392
Rp3393
tp3394
a(g1
(g5
g8
tp3395
Rp3396
g1
(g5
g8
tp3397
Rp3398
g1
(g5
g8
tp3399
Rp3400
tp3401
a(g1
(g5
g8
tp3402
Rp3403
g1
(g5
g8
tp3404
Rp3405
g1
(g5
g8
tp3406
Rp3407
tp3408
a(g1
(g5
g8
tp3409
Rp3410
g1
(g5
g8
tp3411
Rp3412
g1
(g5
g8
tp3413
Rp3414
tp3415
a(g1
(g5
g8
tp3416
Rp3417
g1
(g5
g8
tp3418
Rp3419
g1
(g5
g8
tp3420
Rp3421
tp3422
a(g1
(g5
g8
tp3423
Rp3424
g1
(g5
g8
tp3425
Rp3426
g1
(g5
g8
tp3427
Rp3428
tp3429
a(g1
(g5
g8
tp3430
Rp3431
g1
(g5
g8
tp3432
Rp3433
g1
(g5
g8
tp3434
Rp3435
tp3436
a(g1
(g5
g8
tp3437
Rp3438
g1
(g5
g8
tp3439
Rp3440
g1
(g5
g8
tp3441
Rp3442
tp3443
a(g1
(g5
g8
tp3444
Rp3445
g1
(g5
g8
tp3446
Rp3447
g1
(g5
g8
tp3448
Rp3449
tp3450
a(g1
(g5
g8
tp3451
Rp3452
g1
(g5
g8
tp3453
Rp3454
g1
(g5
g8
tp3455
Rp3456
tp3457
a(g1
(g5
g466
tp3458
Rp3459
g1
(g5
g1265
tp3460
Rp3461
g1
(g5
g1265
tp3462
Rp3463
tp3464
a(g1
(g5
g3154
tp3465
Rp3466
g1
(g5
g3157
tp3467
Rp3468
g1
(g5
g3160
tp3469
Rp3470
tp3471
a(g1
(g5
g466
tp3472
Rp3473
g1
(g5
g1265
tp3474
Rp3475
g1
(g5
g1265
tp3476
Rp3477
tp3478
a(g1
(g5
g8
tp3479
Rp3480
g1
(g5
g8
tp3481
Rp3482
g1
(g5
g8
tp3483
Rp3484
tp3485
a(g1
(g5
g8
tp3486
Rp3487
g1
(g5
g8
tp3488
Rp3489
g1
(g5
g8
tp3490
Rp3491
tp3492
a(g1
(g5
g8
tp3493
Rp3494
g1
(g5
g8
tp3495
Rp3496
g1
(g5
g8
tp3497
Rp3498
tp3499
a(g1
(g5
g8
tp3500
Rp3501
g1
(g5
g8
tp3502
Rp3503
g1
(g5
g8
tp3504
Rp3505
tp3506
a(g1
(g5
g8
tp3507
Rp3508
g1
(g5
g8
tp3509
Rp3510
g1
(g5
g8
tp3511
Rp3512
tp3513
a(g1
(g5
g8
tp3514
Rp3515
g1
(g5
g8
tp3516
Rp3517
g1
(g5
g8
tp3518
Rp3519
tp3520
a(g1
(g5
g8
tp3521
Rp3522
g1
(g5
g8
tp3523
Rp3524
g1
(g5
g8
tp3525
Rp3526
tp3527
a(g1
(g5
g8
tp3528
Rp3529
g1
(g5
g8
tp3530
Rp3531
g1
(g5
g8
tp3532
Rp3533
tp3534
a(g1
(g5
g8
tp3535
Rp3536
g1
(g5
g8
tp3537
Rp3538
g1
(g5
g8
tp3539
Rp3540
tp3541
a(g1
(g5
g8
tp3542
Rp3543
g1
(g5
g8
tp3544
Rp3545
g1
(g5
g8
tp3546
Rp3547
tp3548
a(g1
(g5
g8
tp3549
Rp3550
g1
(g5
g8
tp3551
Rp3552
g1
(g5
g8
tp3553
Rp3554
tp3555
a(g1
(g5
g8
tp3556
Rp3557
g1
(g5
g8
tp3558
Rp3559
g1
(g5
g8
tp3560
Rp3561
tp3562
a(g1
(g5
g8
tp3563
Rp3564
g1
(g5
g8
tp3565
Rp3566
g1
(g5
g8
tp3567
Rp3568
tp3569
a(g1
(g5
g8
tp3570
Rp3571
g1
(g5
g8
tp3572
Rp3573
g1
(g5
g8
tp3574
Rp3575
tp3576
a(g1
(g5
g8
tp3577
Rp3578
g1
(g5
g8
tp3579
Rp3580
g1
(g5
g8
tp3581
Rp3582
tp3583
a(g1
(g5
g8
tp3584
Rp3585
g1
(g5
g8
tp3586
Rp3587
g1
(g5
g8
tp3588
Rp3589
tp3590
a(g1
(g5
g8
tp3591
Rp3592
g1
(g5
g8
tp3593
Rp3594
g1
(g5
g8
tp3595
Rp3596
tp3597
a(g1
(g5
g8
tp3598
Rp3599
g1
(g5
g466
tp3600
Rp3601
g1
(g5
g466
tp3602
Rp3603
tp3604
a(g1
(g5
g8
tp3605
Rp3606
g1
(g5
g466
tp3607
Rp3608
g1
(g5
g466
tp3609
Rp3610
tp3611
a(g1
(g5
g8
tp3612
Rp3613
g1
(g5
g466
tp3614
Rp3615
g1
(g5
g466
tp3616
Rp3617
tp3618
a(g1
(g5
g8
tp3619
Rp3620
g1
(g5
g466
tp3621
Rp3622
g1
(g5
g466
tp3623
Rp3624
tp3625
a(g1
(g5
g8
tp3626
Rp3627
g1
(g5
g466
tp3628
Rp3629
g1
(g5
g466
tp3630
Rp3631
tp3632
a(g1
(g5
g8
tp3633
Rp3634
g1
(g5
g466
tp3635
Rp3636
g1
(g5
g466
tp3637
Rp3638
tp3639
a(g1
(g5
g8
tp3640
Rp3641
g1
(g5
g466
tp3642
Rp3643
g1
(g5
g466
tp3644
Rp3645
tp3646
a(g1
(g5
g8
tp3647
Rp3648
g1
(g5
g466
tp3649
Rp3650
g1
(g5
g466
tp3651
Rp3652
tp3653
a(g1
(g5
g8
tp3654
Rp3655
g1
(g5
g466
tp3656
Rp3657
g1
(g5
g466
tp3658
Rp3659
tp3660
a(g1
(g5
g8
tp3661
Rp3662
g1
(g5
g466
tp3663
Rp3664
g1
(g5
g466
tp3665
Rp3666
tp3667
a(g1
(g5
g8
tp3668
Rp3669
g1
(g5
g466
tp3670
Rp3671
g1
(g5
g466
tp3672
Rp3673
tp3674
a(g1
(g5
g8
tp3675
Rp3676
g1
(g5
g8
tp3677
Rp3678
g1
(g5
g8
tp3679
Rp3680
tp3681
a(g1
(g5
g8
tp3682
Rp3683
g1
(g5
g8
tp3684
Rp3685
g1
(g5
g8
tp3686
Rp3687
tp3688
a(g1
(g5
g8
tp3689
Rp3690
g1
(g5
g8
tp3691
Rp3692
g1
(g5
g8
tp3693
Rp3694
tp3695
a(g1
(g5
g8
tp3696
Rp3697
g1
(g5
g8
tp3698
Rp3699
g1
(g5
g8
tp3700
Rp3701
tp3702
a(g1
(g5
g8
tp3703
Rp3704
g1
(g5
g8
tp3705
Rp3706
g1
(g5
g8
tp3707
Rp3708
tp3709
a(g1
(g5
g8
tp3710
Rp3711
g1
(g5
g8
tp3712
Rp3713
g1
(g5
g8
tp3714
Rp3715
tp3716
a(g1
(g5
g8
tp3717
Rp3718
g1
(g5
g8
tp3719
Rp3720
g1
(g5
g8
tp3721
Rp3722
tp3723
a(g1
(g5
g8
tp3724
Rp3725
g1
(g5
g8
tp3726
Rp3727
g1
(g5
g8
tp3728
Rp3729
tp3730
a(g1
(g5
g8
tp3731
Rp3732
g1
(g5
g8
tp3733
Rp3734
g1
(g5
g8
tp3735
Rp3736
tp3737
a(g1
(g5
g8
tp3738
Rp3739
g1
(g5
g8
tp3740
Rp3741
g1
(g5
g8
tp3742
Rp3743
tp3744
a(g1
(g5
g8
tp3745
Rp3746
g1
(g5
g8
tp3747
Rp3748
g1
(g5
g8
tp3749
Rp3750
tp3751
a(g1
(g5
g8
tp3752
Rp3753
g1
(g5
g8
tp3754
Rp3755
g1
(g5
g8
tp3756
Rp3757
tp3758
a(g1
(g5
g8
tp3759
Rp3760
g1
(g5
g8
tp3761
Rp3762
g1
(g5
g8
tp3763
Rp3764
tp3765
a(g1
(g5
g8
tp3766
Rp3767
g1
(g5
g8
tp3768
Rp3769
g1
(g5
g8
tp3770
Rp3771
tp3772
a(g1
(g5
g466
tp3773
Rp3774
g1
(g5
g1265
tp3775
Rp3776
g1
(g5
g1265
tp3777
Rp3778
tp3779
a(g1
(g5
g466
tp3780
Rp3781
g1
(g5
g1265
tp3782
Rp3783
g1
(g5
g1265
tp3784
Rp3785
tp3786
a(g1
(g5
g466
tp3787
Rp3788
g1
(g5
g1265
tp3789
Rp3790
g1
(g5
g1265
tp3791
Rp3792
tp3793
a(g1
(g5
g8
tp3794
Rp3795
g1
(g5
g8
tp3796
Rp3797
g1
(g5
g8
tp3798
Rp3799
tp3800
a(g1
(g5
g8
tp3801
Rp3802
g1
(g5
g8
tp3803
Rp3804
g1
(g5
g8
tp3805
Rp3806
tp3807
a(g1
(g5
g8
tp3808
Rp3809
g1
(g5
g8
tp3810
Rp3811
g1
(g5
g8
tp3812
Rp3813
tp3814
a(g1
(g5
g8
tp3815
Rp3816
g1
(g5
g8
tp3817
Rp3818
g1
(g5
g8
tp3819
Rp3820
tp3821
a(g1
(g5
g8
tp3822
Rp3823
g1
(g5
g8
tp3824
Rp3825
g1
(g5
g8
tp3826
Rp3827
tp3828
a(g1
(g5
g8
tp3829
Rp3830
g1
(g5
g8
tp3831
Rp3832
g1
(g5
g8
tp3833
Rp3834
tp3835
a(g1
(g5
g8
tp3836
Rp3837
g1
(g5
g8
tp3838
Rp3839
g1
(g5
g8
tp3840
Rp3841
tp3842
a(g1
(g5
g8
tp3843
Rp3844
g1
(g5
g8
tp3845
Rp3846
g1
(g5
g8
tp3847
Rp3848
tp3849
a(g1
(g5
g8
tp3850
Rp3851
g1
(g5
g8
tp3852
Rp3853
g1
(g5
g8
tp3854
Rp3855
tp3856
a(g1
(g5
g8
tp3857
Rp3858
g1
(g5
g8
tp3859
Rp3860
g1
(g5
g8
tp3861
Rp3862
tp3863
a(g1
(g5
g8
tp3864
Rp3865
g1
(g5
g8
tp3866
Rp3867
g1
(g5
g8
tp3868
Rp3869
tp3870
a(g1
(g5
g8
tp3871
Rp3872
g1
(g5
g8
tp3873
Rp3874
g1
(g5
g8
tp3875
Rp3876
tp3877
a(g1
(g5
g8
tp3878
Rp3879
g1
(g5
g8
tp3880
Rp3881
g1
(g5
g8
tp3882
Rp3883
tp3884
a(g1
(g5
g8
tp3885
Rp3886
g1
(g5
g8
tp3887
Rp3888
g1
(g5
g8
tp3889
Rp3890
tp3891
a(g1
(g5
g8
tp3892
Rp3893
g1
(g5
g8
tp3894
Rp3895
g1
(g5
g8
tp3896
Rp3897
tp3898
a(g1
(g5
g8
tp3899
Rp3900
g1
(g5
g8
tp3901
Rp3902
g1
(g5
g8
tp3903
Rp3904
tp3905
a(g1
(g5
g8
tp3906
Rp3907
g1
(g5
g8
tp3908
Rp3909
g1
(g5
g8
tp3910
Rp3911
tp3912
a(g1
(g5
g8
tp3913
Rp3914
g1
(g5
g8
tp3915
Rp3916
g1
(g5
g8
tp3917
Rp3918
tp3919
a(g1
(g5
g8
tp3920
Rp3921
g1
(g5
g466
tp3922
Rp3923
g1
(g5
g466
tp3924
Rp3925
tp3926
a(g1
(g5
g8
tp3927
Rp3928
g1
(g5
g466
tp3929
Rp3930
g1
(g5
g466
tp3931
Rp3932
tp3933
a(g1
(g5
g8
tp3934
Rp3935
g1
(g5
g466
tp3936
Rp3937
g1
(g5
g466
tp3938
Rp3939
tp3940
a(g1
(g5
g8
tp3941
Rp3942
g1
(g5
g466
tp3943
Rp3944
g1
(g5
g466
tp3945
Rp3946
tp3947
a(g1
(g5
g8
tp3948
Rp3949
g1
(g5
g466
tp3950
Rp3951
g1
(g5
g466
tp3952
Rp3953
tp3954
a(g1
(g5
g8
tp3955
Rp3956
g1
(g5
g466
tp3957
Rp3958
g1
(g5
g466
tp3959
Rp3960
tp3961
a(g1
(g5
g8
tp3962
Rp3963
g1
(g5
g466
tp3964
Rp3965
g1
(g5
g466
tp3966
Rp3967
tp3968
a(g1
(g5
g8
tp3969
Rp3970
g1
(g5
g466
tp3971
Rp3972
g1
(g5
g466
tp3973
Rp3974
tp3975
a(g1
(g5
g8
tp3976
Rp3977
g1
(g5
g466
tp3978
Rp3979
g1
(g5
g466
tp3980
Rp3981
tp3982
a(g1
(g5
g8
tp3983
Rp3984
g1
(g5
g8
tp3985
Rp3986
g1
(g5
g8
tp3987
Rp3988
tp3989
a(g1
(g5
g8
tp3990
Rp3991
g1
(g5
g8
tp3992
Rp3993
g1
(g5
g8
tp3994
Rp3995
tp3996
a(g1
(g5
g8
tp3997
Rp3998
g1
(g5
g8
tp3999
Rp4000
g1
(g5
g8
tp4001
Rp4002
tp4003
a(g1
(g5
g8
tp4004
Rp4005
g1
(g5
g8
tp4006
Rp4007
g1
(g5
g8
tp4008
Rp4009
tp4010
a(g1
(g5
g8
tp4011
Rp4012
g1
(g5
g8
tp4013
Rp4014
g1
(g5
g8
tp4015
Rp4016
tp4017
a(g1
(g5
g8
tp4018
Rp4019
g1
(g5
g8
tp4020
Rp4021
g1
(g5
g8
tp4022
Rp4023
tp4024
a(g1
(g5
g8
tp4025
Rp4026
g1
(g5
g8
tp4027
Rp4028
g1
(g5
g8
tp4029
Rp4030
tp4031
a(g1
(g5
g8
tp4032
Rp4033
g1
(g5
g8
tp4034
Rp4035
g1
(g5
g8
tp4036
Rp4037
tp4038
a(g1
(g5
g8
tp4039
Rp4040
g1
(g5
g8
tp4041
Rp4042
g1
(g5
g8
tp4043
Rp4044
tp4045
a(g1
(g5
g8
tp4046
Rp4047
g1
(g5
g8
tp4048
Rp4049
g1
(g5
g8
tp4050
Rp4051
tp4052
a(g1
(g5
g8
tp4053
Rp4054
g1
(g5
g8
tp4055
Rp4056
g1
(g5
g8
tp4057
Rp4058
tp4059
a(g1
(g5
g8
tp4060
Rp4061
g1
(g5
g8
tp4062
Rp4063
g1
(g5
g8
tp4064
Rp4065
tp4066
a(g1
(g5
g8
tp4067
Rp4068
g1
(g5
g8
tp4069
Rp4070
g1
(g5
g8
tp4071
Rp4072
tp4073
a(g1
(g5
g8
tp4074
Rp4075
g1
(g5
g8
tp4076
Rp4077
g1
(g5
g8
tp4078
Rp4079
tp4080
a(g1
(g5
g8
tp4081
Rp4082
g1
(g5
g8
tp4083
Rp4084
g1
(g5
g8
tp4085
Rp4086
tp4087
a(g1
(g5
g466
tp4088
Rp4089
g1
(g5
g1265
tp4090
Rp4091
g1
(g5
g1265
tp4092
Rp4093
tp4094
a(g1
(g5
g466
tp4095
Rp4096
g1
(g5
g1265
tp4097
Rp4098
g1
(g5
g1265
tp4099
Rp4100
tp4101
a(g1
(g5
g466
tp4102
Rp4103
g1
(g5
g1265
tp4104
Rp4105
g1
(g5
g1265
tp4106
Rp4107
tp4108
a(g1
(g5
g8
tp4109
Rp4110
g1
(g5
g8
tp4111
Rp4112
g1
(g5
g8
tp4113
Rp4114
tp4115
a(g1
(g5
g8
tp4116
Rp4117
g1
(g5
g8
tp4118
Rp4119
g1
(g5
g8
tp4120
Rp4121
tp4122
a(g1
(g5
g8
tp4123
Rp4124
g1
(g5
g8
tp4125
Rp4126
g1
(g5
g8
tp4127
Rp4128
tp4129
a(g1
(g5
g8
tp4130
Rp4131
g1
(g5
g8
tp4132
Rp4133
g1
(g5
g8
tp4134
Rp4135
tp4136
a(g1
(g5
g8
tp4137
Rp4138
g1
(g5
g8
tp4139
Rp4140
g1
(g5
g8
tp4141
Rp4142
tp4143
a(g1
(g5
g8
tp4144
Rp4145
g1
(g5
g8
tp4146
Rp4147
g1
(g5
g8
tp4148
Rp4149
tp4150
a(g1
(g5
g8
tp4151
Rp4152
g1
(g5
g8
tp4153
Rp4154
g1
(g5
g8
tp4155
Rp4156
tp4157
a(g1
(g5
g8
tp4158
Rp4159
g1
(g5
g8
tp4160
Rp4161
g1
(g5
g8
tp4162
Rp4163
tp4164
a(g1
(g5
g8
tp4165
Rp4166
g1
(g5
g8
tp4167
Rp4168
g1
(g5
g8
tp4169
Rp4170
tp4171
a(g1
(g5
g8
tp4172
Rp4173
g1
(g5
g8
tp4174
Rp4175
g1
(g5
g8
tp4176
Rp4177
tp4178
a(g1
(g5
g8
tp4179
Rp4180
g1
(g5
g8
tp4181
Rp4182
g1
(g5
g8
tp4183
Rp4184
tp4185
a(g1
(g5
g8
tp4186
Rp4187
g1
(g5
g8
tp4188
Rp4189
g1
(g5
g8
tp4190
Rp4191
tp4192
a(g1
(g5
g8
tp4193
Rp4194
g1
(g5
g8
tp4195
Rp4196
g1
(g5
g8
tp4197
Rp4198
tp4199
a(g1
(g5
g8
tp4200
Rp4201
g1
(g5
g8
tp4202
Rp4203
g1
(g5
g8
tp4204
Rp4205
tp4206
a(g1
(g5
g8
tp4207
Rp4208
g1
(g5
g8
tp4209
Rp4210
g1
(g5
g8
tp4211
Rp4212
tp4213
a(g1
(g5
g8
tp4214
Rp4215
g1
(g5
g8
tp4216
Rp4217
g1
(g5
g8
tp4218
Rp4219
tp4220
a(g1
(g5
g8
tp4221
Rp4222
g1
(g5
g8
tp4223
Rp4224
g1
(g5
g8
tp4225
Rp4226
tp4227
a(g1
(g5
g8
tp4228
Rp4229
g1
(g5
g8
tp4230
Rp4231
g1
(g5
g8
tp4232
Rp4233
tp4234
a(g1
(g5
g8
tp4235
Rp4236
g1
(g5
g8
tp4237
Rp4238
g1
(g5
g8
tp4239
Rp4240
tp4241
a(g1
(g5
g8
tp4242
Rp4243
g1
(g5
g8
tp4244
Rp4245
g1
(g5
g8
tp4246
Rp4247
tp4248
a(g1
(g5
g8
tp4249
Rp4250
g1
(g5
g466
tp4251
Rp4252
g1
(g5
g466
tp4253
Rp4254
tp4255
a(g1
(g5
g8
tp4256
Rp4257
g1
(g5
g466
tp4258
Rp4259
g1
(g5
g466
tp4260
Rp4261
tp4262
a(g1
(g5
g8
tp4263
Rp4264
g1
(g5
g466
tp4265
Rp4266
g1
(g5
g466
tp4267
Rp4268
tp4269
a(g1
(g5
g8
tp4270
Rp4271
g1
(g5
g466
tp4272
Rp4273
g1
(g5
g466
tp4274
Rp4275
tp4276
a(g1
(g5
g8
tp4277
Rp4278
g1
(g5
g466
tp4279
Rp4280
g1
(g5
g466
tp4281
Rp4282
tp4283
a(g1
(g5
g8
tp4284
Rp4285
g1
(g5
g8
tp4286
Rp4287
g1
(g5
g8
tp4288
Rp4289
tp4290
a(g1
(g5
g8
tp4291
Rp4292
g1
(g5
g8
tp4293
Rp4294
g1
(g5
g8
tp4295
Rp4296
tp4297
a(g1
(g5
g8
tp4298
Rp4299
g1
(g5
g8
tp4300
Rp4301
g1
(g5
g8
tp4302
Rp4303
tp4304
a(g1
(g5
g8
tp4305
Rp4306
g1
(g5
g8
tp4307
Rp4308
g1
(g5
g8
tp4309
Rp4310
tp4311
a(g1
(g5
g8
tp4312
Rp4313
g1
(g5
g8
tp4314
Rp4315
g1
(g5
g8
tp4316
Rp4317
tp4318
a(g1
(g5
g8
tp4319
Rp4320
g1
(g5
g8
tp4321
Rp4322
g1
(g5
g8
tp4323
Rp4324
tp4325
a(g1
(g5
g8
tp4326
Rp4327
g1
(g5
g8
tp4328
Rp4329
g1
(g5
g8
tp4330
Rp4331
tp4332
a(g1
(g5
g8
tp4333
Rp4334
g1
(g5
g8
tp4335
Rp4336
g1
(g5
g8
tp4337
Rp4338
tp4339
a(g1
(g5
g8
tp4340
Rp4341
g1
(g5
g8
tp4342
Rp4343
g1
(g5
g8
tp4344
Rp4345
tp4346
a(g1
(g5
g8
tp4347
Rp4348
g1
(g5
g8
tp4349
Rp4350
g1
(g5
g8
tp4351
Rp4352
tp4353
a(g1
(g5
g8
tp4354
Rp4355
g1
(g5
g8
tp4356
Rp4357
g1
(g5
g8
tp4358
Rp4359
tp4360
a(g1
(g5
g8
tp4361
Rp4362
g1
(g5
g8
tp4363
Rp4364
g1
(g5
g8
tp4365
Rp4366
tp4367
a(g1
(g5
g8
tp4368
Rp4369
g1
(g5
g8
tp4370
Rp4371
g1
(g5
g8
tp4372
Rp4373
tp4374
a(g1
(g5
g8
tp4375
Rp4376
g1
(g5
g8
tp4377
Rp4378
g1
(g5
g8
tp4379
Rp4380
tp4381
a(g1
(g5
g8
tp4382
Rp4383
g1
(g5
g8
tp4384
Rp4385
g1
(g5
g8
tp4386
Rp4387
tp4388
a(g1
(g5
g8
tp4389
Rp4390
g1
(g5
g8
tp4391
Rp4392
g1
(g5
g8
tp4393
Rp4394
tp4395
a(g1
(g5
g8
tp4396
Rp4397
g1
(g5
g8
tp4398
Rp4399
g1
(g5
g8
tp4400
Rp4401
tp4402
a(g1
(g5
g466
tp4403
Rp4404
g1
(g5
g1265
tp4405
Rp4406
g1
(g5
g1265
tp4407
Rp4408
tp4409
a(g1
(g5
g466
tp4410
Rp4411
g1
(g5
g1265
tp4412
Rp4413
g1
(g5
g1265
tp4414
Rp4415
tp4416
a(g1
(g5
g466
tp4417
Rp4418
g1
(g5
g1265
tp4419
Rp4420
g1
(g5
g1265
tp4421
Rp4422
tp4423
a(g1
(g5
g8
tp4424
Rp4425
g1
(g5
g8
tp4426
Rp4427
g1
(g5
g8
tp4428
Rp4429
tp4430
a(g1
(g5
g8
tp4431
Rp4432
g1
(g5
g8
tp4433
Rp4434
g1
(g5
g8
tp4435
Rp4436
tp4437
a(g1
(g5
g8
tp4438
Rp4439
g1
(g5
g8
tp4440
Rp4441
g1
(g5
g8
tp4442
Rp4443
tp4444
a(g1
(g5
g8
tp4445
Rp4446
g1
(g5
g8
tp4447
Rp4448
g1
(g5
g8
tp4449
Rp4450
tp4451
a(g1
(g5
g8
tp4452
Rp4453
g1
(g5
g8
tp4454
Rp4455
g1
(g5
g8
tp4456
Rp4457
tp4458
a(g1
(g5
g8
tp4459
Rp4460
g1
(g5
g8
tp4461
Rp4462
g1
(g5
g8
tp4463
Rp4464
tp4465
a(g1
(g5
g8
tp4466
Rp4467
g1
(g5
g8
tp4468
Rp4469
g1
(g5
g8
tp4470
Rp4471
tp4472
a(g1
(g5
g8
tp4473
Rp4474
g1
(g5
g8
tp4475
Rp4476
g1
(g5
g8
tp4477
Rp4478
tp4479
a(g1
(g5
g8
tp4480
Rp4481
g1
(g5
g8
tp4482
Rp4483
g1
(g5
g8
tp4484
Rp4485
tp4486
a(g1
(g5
g8
tp4487
Rp4488
g1
(g5
g8
tp4489
Rp4490
g1
(g5
g8
tp4491
Rp4492
tp4493
a(g1
(g5
g8
tp4494
Rp4495
g1
(g5
g8
tp4496
Rp4497
g1
(g5
g8
tp4498
Rp4499
tp4500
a(g1
(g5
g8
tp4501
Rp4502
g1
(g5
g8
tp4503
Rp4504
g1
(g5
g8
tp4505
Rp4506
tp4507
a(g1
(g5
g8
tp4508
Rp4509
g1
(g5
g8
tp4510
Rp4511
g1
(g5
g8
tp4512
Rp4513
tp4514
a(g1
(g5
g8
tp4515
Rp4516
g1
(g5
g8
tp4517
Rp4518
g1
(g5
g8
tp4519
Rp4520
tp4521
a(g1
(g5
g8
tp4522
Rp4523
g1
(g5
g8
tp4524
Rp4525
g1
(g5
g8
tp4526
Rp4527
tp4528
a(g1
(g5
g8
tp4529
Rp4530
g1
(g5
g8
tp4531
Rp4532
g1
(g5
g8
tp4533
Rp4534
tp4535
a(g1
(g5
g8
tp4536
Rp4537
g1
(g5
g8
tp4538
Rp4539
g1
(g5
g8
tp4540
Rp4541
tp4542
a(g1
(g5
g8
tp4543
Rp4544
g1
(g5
g8
tp4545
Rp4546
g1
(g5
g8
tp4547
Rp4548
tp4549
a(g1
(g5
g8
tp4550
Rp4551
g1
(g5
g8
tp4552
Rp4553
g1
(g5
g8
tp4554
Rp4555
tp4556
a(g1
(g5
g8
tp4557
Rp4558
g1
(g5
g8
tp4559
Rp4560
g1
(g5
g8
tp4561
Rp4562
tp4563
a(g1
(g5
g8
tp4564
Rp4565
g1
(g5
g8
tp4566
Rp4567
g1
(g5
g8
tp4568
Rp4569
tp4570
a(g1
(g5
g8
tp4571
Rp4572
g1
(g5
g8
tp4573
Rp4574
g1
(g5
g8
tp4575
Rp4576
tp4577
a(g1
(g5
g8
tp4578
Rp4579
g1
(g5
g8
tp4580
Rp4581
g1
(g5
g8
tp4582
Rp4583
tp4584
a(g1
(g5
g8
tp4585
Rp4586
g1
(g5
g8
tp4587
Rp4588
g1
(g5
g8
tp4589
Rp4590
tp4591
a(g1
(g5
g8
tp4592
Rp4593
g1
(g5
g8
tp4594
Rp4595
g1
(g5
g8
tp4596
Rp4597
tp4598
a(g1
(g5
g8
tp4599
Rp4600
g1
(g5
g8
tp4601
Rp4602
g1
(g5
g8
tp4603
Rp4604
tp4605
a(g1
(g5
g8
tp4606
Rp4607
g1
(g5
g8
tp4608
Rp4609
g1
(g5
g8
tp4610
Rp4611
tp4612
a(g1
(g5
g8
tp4613
Rp4614
g1
(g5
g8
tp4615
Rp4616
g1
(g5
g8
tp4617
Rp4618
tp4619
a(g1
(g5
g8
tp4620
Rp4621
g1
(g5
g8
tp4622
Rp4623
g1
(g5
g8
tp4624
Rp4625
tp4626
a(g1
(g5
g8
tp4627
Rp4628
g1
(g5
g8
tp4629
Rp4630
g1
(g5
g8
tp4631
Rp4632
tp4633
a(g1
(g5
g8
tp4634
Rp4635
g1
(g5
g8
tp4636
Rp4637
g1
(g5
g8
tp4638
Rp4639
tp4640
a(g1
(g5
g8
tp4641
Rp4642
g1
(g5
g8
tp4643
Rp4644
g1
(g5
g8
tp4645
Rp4646
tp4647
a(g1
(g5
g8
tp4648
Rp4649
g1
(g5
g8
tp4650
Rp4651
g1
(g5
g8
tp4652
Rp4653
tp4654
a(g1
(g5
g8
tp4655
Rp4656
g1
(g5
g8
tp4657
Rp4658
g1
(g5
g8
tp4659
Rp4660
tp4661
a(g1
(g5
g8
tp4662
Rp4663
g1
(g5
g8
tp4664
Rp4665
g1
(g5
g8
tp4666
Rp4667
tp4668
a(g1
(g5
g8
tp4669
Rp4670
g1
(g5
g8
tp4671
Rp4672
g1
(g5
g8
tp4673
Rp4674
tp4675
a(g1
(g5
g8
tp4676
Rp4677
g1
(g5
g8
tp4678
Rp4679
g1
(g5
g8
tp4680
Rp4681
tp4682
a(g1
(g5
g8
tp4683
Rp4684
g1
(g5
g8
tp4685
Rp4686
g1
(g5
g8
tp4687
Rp4688
tp4689
a(g1
(g5
g8
tp4690
Rp4691
g1
(g5
g8
tp4692
Rp4693
g1
(g5
g8
tp4694
Rp4695
tp4696
a(g1
(g5
g8
tp4697
Rp4698
g1
(g5
g8
tp4699
Rp4700
g1
(g5
g8
tp4701
Rp4702
tp4703
a(g1
(g5
g8
tp4704
Rp4705
g1
(g5
g8
tp4706
Rp4707
g1
(g5
g8
tp4708
Rp4709
tp4710
a(g1
(g5
g8
tp4711
Rp4712
g1
(g5
g8
tp4713
Rp4714
g1
(g5
g8
tp4715
Rp4716
tp4717
a(g1
(g5
g8
tp4718
Rp4719
g1
(g5
g8
tp4720
Rp4721
g1
(g5
g8
tp4722
Rp4723
tp4724
a(g1
(g5
g466
tp4725
Rp4726
g1
(g5
g1265
tp4727
Rp4728
g1
(g5
g1265
tp4729
Rp4730
tp4731
a(g1
(g5
g466
tp4732
Rp4733
g1
(g5
g1265
tp4734
Rp4735
g1
(g5
g1265
tp4736
Rp4737
tp4738
a(g1
(g5
g8
tp4739
Rp4740
g1
(g5
g8
tp4741
Rp4742
g1
(g5
g8
tp4743
Rp4744
tp4745
a(g1
(g5
g8
tp4746
Rp4747
g1
(g5
g8
tp4748
Rp4749
g1
(g5
g8
tp4750
Rp4751
tp4752
a(g1
(g5
g8
tp4753
Rp4754
g1
(g5
g8
tp4755
Rp4756
g1
(g5
g8
tp4757
Rp4758
tp4759
a(g1
(g5
g8
tp4760
Rp4761
g1
(g5
g8
tp4762
Rp4763
g1
(g5
g8
tp4764
Rp4765
tp4766
a(g1
(g5
g8
tp4767
Rp4768
g1
(g5
g8
tp4769
Rp4770
g1
(g5
g8
tp4771
Rp4772
tp4773
a(g1
(g5
g8
tp4774
Rp4775
g1
(g5
g8
tp4776
Rp4777
g1
(g5
g8
tp4778
Rp4779
tp4780
a(g1
(g5
g8
tp4781
Rp4782
g1
(g5
g8
tp4783
Rp4784
g1
(g5
g8
tp4785
Rp4786
tp4787
a(g1
(g5
g8
tp4788
Rp4789
g1
(g5
g8
tp4790
Rp4791
g1
(g5
g8
tp4792
Rp4793
tp4794
a(g1
(g5
g8
tp4795
Rp4796
g1
(g5
g8
tp4797
Rp4798
g1
(g5
g8
tp4799
Rp4800
tp4801
a(g1
(g5
g8
tp4802
Rp4803
g1
(g5
g8
tp4804
Rp4805
g1
(g5
g8
tp4806
Rp4807
tp4808
a(g1
(g5
g8
tp4809
Rp4810
g1
(g5
g8
tp4811
Rp4812
g1
(g5
g8
tp4813
Rp4814
tp4815
a(g1
(g5
g8
tp4816
Rp4817
g1
(g5
g8
tp4818
Rp4819
g1
(g5
g8
tp4820
Rp4821
tp4822
a(g1
(g5
g8
tp4823
Rp4824
g1
(g5
g8
tp4825
Rp4826
g1
(g5
g8
tp4827
Rp4828
tp4829
a(g1
(g5
g8
tp4830
Rp4831
g1
(g5
g8
tp4832
Rp4833
g1
(g5
g8
tp4834
Rp4835
tp4836
a(g1
(g5
g8
tp4837
Rp4838
g1
(g5
g8
tp4839
Rp4840
g1
(g5
g8
tp4841
Rp4842
tp4843
a(g1
(g5
g8
tp4844
Rp4845
g1
(g5
g8
tp4846
Rp4847
g1
(g5
g8
tp4848
Rp4849
tp4850
a(g1
(g5
g8
tp4851
Rp4852
g1
(g5
g8
tp4853
Rp4854
g1
(g5
g8
tp4855
Rp4856
tp4857
a(g1
(g5
g8
tp4858
Rp4859
g1
(g5
g8
tp4860
Rp4861
g1
(g5
g8
tp4862
Rp4863
tp4864
a(g1
(g5
g8
tp4865
Rp4866
g1
(g5
g8
tp4867
Rp4868
g1
(g5
g8
tp4869
Rp4870
tp4871
a(g1
(g5
g8
tp4872
Rp4873
g1
(g5
g8
tp4874
Rp4875
g1
(g5
g8
tp4876
Rp4877
tp4878
a(g1
(g5
g8
tp4879
Rp4880
g1
(g5
g8
tp4881
Rp4882
g1
(g5
g8
tp4883
Rp4884
tp4885
a(g1
(g5
g8
tp4886
Rp4887
g1
(g5
g8
tp4888
Rp4889
g1
(g5
g8
tp4890
Rp4891
tp4892
a(g1
(g5
g8
tp4893
Rp4894
g1
(g5
g8
tp4895
Rp4896
g1
(g5
g8
tp4897
Rp4898
tp4899
a(g1
(g5
g8
tp4900
Rp4901
g1
(g5
g8
tp4902
Rp4903
g1
(g5
g8
tp4904
Rp4905
tp4906
a(g1
(g5
g8
tp4907
Rp4908
g1
(g5
g8
tp4909
Rp4910
g1
(g5
g8
tp4911
Rp4912
tp4913
a(g1
(g5
g8
tp4914
Rp4915
g1
(g5
g8
tp4916
Rp4917
g1
(g5
g8
tp4918
Rp4919
tp4920
a(g1
(g5
g8
tp4921
Rp4922
g1
(g5
g8
tp4923
Rp4924
g1
(g5
g8
tp4925
Rp4926
tp4927
a(g1
(g5
g8
tp4928
Rp4929
g1
(g5
g8
tp4930
Rp4931
g1
(g5
g8
tp4932
Rp4933
tp4934
a(g1
(g5
g8
tp4935
Rp4936
g1
(g5
g8
tp4937
Rp4938
g1
(g5
g8
tp4939
Rp4940
tp4941
a(g1
(g5
g8
tp4942
Rp4943
g1
(g5
g8
tp4944
Rp4945
g1
(g5
g8
tp4946
Rp4947
tp4948
a(g1
(g5
g8
tp4949
Rp4950
g1
(g5
g8
tp4951
Rp4952
g1
(g5
g8
tp4953
Rp4954
tp4955
a(g1
(g5
g8
tp4956
Rp4957
g1
(g5
g8
tp4958
Rp4959
g1
(g5
g8
tp4960
Rp4961
tp4962
a(g1
(g5
g8
tp4963
Rp4964
g1
(g5
g8
tp4965
Rp4966
g1
(g5
g8
tp4967
Rp4968
tp4969
a(g1
(g5
g8
tp4970
Rp4971
g1
(g5
g8
tp4972
Rp4973
g1
(g5
g8
tp4974
Rp4975
tp4976
a(g1
(g5
g8
tp4977
Rp4978
g1
(g5
g8
tp4979
Rp4980
g1
(g5
g8
tp4981
Rp4982
tp4983
a(g1
(g5
g8
tp4984
Rp4985
g1
(g5
g8
tp4986
Rp4987
g1
(g5
g8
tp4988
Rp4989
tp4990
a(g1
(g5
g8
tp4991
Rp4992
g1
(g5
g8
tp4993
Rp4994
g1
(g5
g8
tp4995
Rp4996
tp4997
a(g1
(g5
g8
tp4998
Rp4999
g1
(g5
g8
tp5000
Rp5001
g1
(g5
g8
tp5002
Rp5003
tp5004
a(g1
(g5
g8
tp5005
Rp5006
g1
(g5
g8
tp5007
Rp5008
g1
(g5
g8
tp5009
Rp5010
tp5011
a(g1
(g5
g8
tp5012
Rp5013
g1
(g5
g8
tp5014
Rp5015
g1
(g5
g8
tp5016
Rp5017
tp5018
a(g1
(g5
g8
tp5019
Rp5020
g1
(g5
g8
tp5021
Rp5022
g1
(g5
g8
tp5023
Rp5024
tp5025
a(g1
(g5
g8
tp5026
Rp5027
g1
(g5
g8
tp5028
Rp5029
g1
(g5
g8
tp5030
Rp5031
tp5032
a(g1
(g5
g8
tp5033
Rp5034
g1
(g5
g8
tp5035
Rp5036
g1
(g5
g8
tp5037
Rp5038
tp5039
a(g1
(g5
g8
tp5040
Rp5041
g1
(g5
g8
tp5042
Rp5043
g1
(g5
g8
tp5044
Rp5045
tp5046
a(g1
(g5
g8
tp5047
Rp5048
g1
(g5
g8
tp5049
Rp5050
g1
(g5
g8
tp5051
Rp5052
tp5053
a.