(lp0
(cnumpy.core.multiarray
scalar
p1
(cnumpy
dtype
p2
(S'u1'
p3
I0
I1
tp4
Rp5
(I3
S'|'
p6
NNNI-1
I-1
I0
tp7
bS'\x00'
p8
tp9
Rp10
g1
(g5
g8
tp11
Rp12
g1
(g5
g8
tp13
Rp14
tp15
a(g1
(g5
g8
tp16
Rp17
g1
(g5
g8
tp18
Rp19
g1
(g5
g8
tp20
Rp21
tp22
a(g1
(g5
g8
tp23
Rp24
g1
(g5
g8
tp25
Rp26
g1
(g5
g8
tp27
Rp28
tp29
a(g1
(g5
g8
tp30
Rp31
g1
(g5
g8
tp32
Rp33
g1
(g5
g8
tp34
Rp35
tp36
a(g1
(g5
g8
tp37
Rp38
g1
(g5
g8
tp39
Rp40
g1
(g5
g8
tp41
Rp42
tp43
a(g1
(g5
g8
tp44
Rp45
g1
(g5
g8
tp46
Rp47
g1
(g5
g8
tp48
Rp49
tp50
a(g1
(g5
g8
tp51
Rp52
g1
(g5
g8
tp53
Rp54
g1
(g5
g8
tp55
Rp56
tp57
a(g1
(g5
g8
tp58
Rp59
g1
(g5
g8
tp60
Rp61
g1
(g5
g8
tp62
Rp63
tp64
a(g1
(g5
g8
tp65
Rp66
g1
(g5
g8
tp67
Rp68
g1
(g5
g8
tp69
Rp70
tp71
a(g1
(g5
g8
tp72
Rp73
g1
(g5
g8
tp74
Rp75
g1
(g5
g8
tp76
Rp77
tp78
a(g1
(g5
g8
tp79
Rp80
g1
(g5
g8
tp81
Rp82
g1
(g5
g8
tp83
Rp84
tp85
a(g1
(g5
g8
tp86
Rp87
g1
(g5
g8
tp88
Rp89
g1
(g5
g8
tp90
Rp91
tp92
a(g1
(g5
g8
tp93
Rp94
g1
(g5
g8
tp95
Rp96
g1
(g5
g8
tp97
Rp98
tp99
a(g1
(g5
g8
tp100
Rp101
g1
(g5
g8
tp102
Rp103
g1
(g5
g8
tp104
Rp105
tp106
a(g1
(g5
g8
tp107
Rp108
g1
(g5
g8
tp109
Rp110
g1
(g5
g8
tp111
Rp112
tp113
a(g1
(g5
g8
tp114
Rp115
g1
(g5
g8
tp116
Rp117
g1
(g5
g8
tp118
Rp119
tp120
a(g1
(g5
g8
tp121
Rp122
g1
(g5
g8
tp123
Rp124
g1
(g5
g8
tp125
Rp126
tp127
a(g1
(g5
g8
tp128
Rp129
g1
(g5
g8
tp130
Rp131
g1
(g5
g8
tp132
Rp133
tp134
a(g1
(g5
g8
tp135
Rp136
g1
(g5
g8
tp137
Rp138
g1
(g5
g8
tp139
Rp140
tp141
a(g1
(g5
g8
tp142
Rp143
g1
(g5
g8
tp144
Rp145
g1
(g5
g8
tp146
Rp147
tp148
a(g1
(g5
g8
tp149
Rp150
g1
(g5
g8
tp151
Rp152
g1
(g5
g8
tp153
Rp154
tp155
a(g1
(g5
g8
tp156
Rp157
g1
(g5
g8
tp158
Rp159
g1
(g5
g8
tp160
Rp161
tp162
a(g1
(g5
g8
tp163
Rp164
g1
(g5
g8
tp165
Rp166
g1
(g5
g8
tp167
Rp168
tp169
a(g1
(g5
g8
tp170
Rp171
g1
(g5
g8
tp172
Rp173
g1
(g5
g8
tp174
Rp175
tp176
a(g1
(g5
g8
tp177
Rp178
g1
(g5
g8
tp179
Rp180
g1
(g5
g8
tp181
Rp182
tp183
a(g1
(g5
g8
tp184
Rp185
g1
(g5
g8
tp186
Rp187
g1
(g5
g8
tp188
Rp189
tp190
a(g1
(g5
g8
tp191
Rp192
g1
(g5
g8
tp193
Rp194
g1
(g5
g8
tp195
Rp196
tp197
a(g1
(g5
g8
tp198
Rp199
g1
(g5
g8
tp200
Rp201
g1
(g5
g8
tp202
Rp203
tp204
a(g1
(g5
g8
tp205
Rp206
g1
(g5
g8
tp207
Rp208
g1
(g5
g8
tp209
Rp210
tp211
a(g1
(g5
g8
tp212
Rp213
g1
(g5
g8
tp214
Rp215
g1
(g5
g8
tp216
Rp217
tp218
a(g1
(g5
g8
tp219
Rp220
g1
(g5
g8
tp221
Rp222
g1
(g5
g8
tp223
Rp224
tp225
a(g1
(g5
g8
tp226
Rp227
g1
(g5
g8
tp228
Rp229
g1
(g5
g8
tp230
Rp231
tp232
a(g1
(g5
g8
tp233
Rp234
g1
(g5
g8
tp235
Rp236
g1
(g5
g8
tp237
Rp238
tp239
a(g1
(g5
g8
tp240
Rp241
g1
(g5
g8
tp242
Rp243
g1
(g5
g8
tp244
Rp245
tp246
a(g1
(g5
g8
tp247
Rp248
g1
(g5
g8
tp249
Rp250
g1
(g5
g8
tp251
Rp252
tp253
a(g1
(g5
g8
tp254
Rp255
g1
(g5
g8
tp256
Rp257
g1
(g5
g8
tp258
Rp259
tp260
a(g1
(g5
g8
tp261
Rp262
g1
(g5
g8
tp263
Rp264
g1
(g5
g8
tp265
Rp266
tp267
a(g1
(g5
g8
tp268
Rp269
g1
(g5
g8
tp270
Rp271
g1
(g5
g8
tp272
Rp273
tp274
a(g1
(g5
g8
tp275
Rp276
g1
(g5
g8
tp277
Rp278
g1
(g5
g8
tp279
Rp280
tp281
a(g1
(g5
g8
tp282
Rp283
g1
(g5
g8
tp284
Rp285
g1
(g5
g8
tp286
Rp287
tp288
a(g1
(g5
g8
tp289
Rp290
g1
(g5
g8
tp291
Rp292
g1
(g5
g8
tp293
Rp294
tp295
a(g1
(g5
g8
tp296
Rp297
g1
(g5
g8
tp298
Rp299
g1
(g5
g8
tp300
Rp301
tp302
a(g1
(g5
g8
tp303
Rp304
g1
(g5
g8
tp305
Rp306
g1
(g5
g8
tp307
Rp308
tp309
a(g1
(g5
g8
tp310
Rp311
g1
(g5
g8
tp312
Rp313
g1
(g5
g8
tp314
Rp315
tp316
a(g1
(g5
g8
tp317
Rp318
g1
(g5
g8
tp319
Rp320
g1
(g5
g8
tp321
Rp322
tp323
a(g1
(g5
g8
tp324
Rp325
g1
(g5
g8
tp326
Rp327
g1
(g5
g8
tp328
Rp329
tp330
a(g1
(g5
g8
tp331
Rp332
g1
(g5
g8
tp333
Rp334
g1
(g5
g8
tp335
Rp336
tp337
a(g1
(g5
g8
tp338
Rp339
g1
(g5
g8
tp340
Rp341
g1
(g5
g8
tp342
Rp343
tp344
a(g1
(g5
g8
tp345
Rp346
g1
(g5
g8
tp347
Rp348
g1
(g5
g8
tp349
Rp350
tp351
a(g1
(g5
g8
tp352
Rp353
g1
(g5
g8
tp354
Rp355
g1
(g5
g8
tp356
Rp357
tp358
a(g1
(g5
g8
tp359
Rp360
g1
(g5
g8
tp361
Rp362
g1
(g5
g8
tp363
Rp364
tp365
a(g1
(g5
g8
tp366
Rp367
g1
(g5
g8
tp368
Rp369
g1
(g5
g8
tp370
Rp371
tp372
a(g1
(g5
g8
tp373
Rp374
g1
(g5
g8
tp375
Rp376
g1
(g5
g8
tp377
Rp378
tp379
a(g1
(g5
g8
tp380
Rp381
g1
(g5
g8
tp382
Rp383
g1
(g5
g8
tp384
Rp385
tp386
a(g1
(g5
g8
tp387
Rp388
g1
(g5
g8
tp389
Rp390
g1
(g5
g8
tp391
Rp392
tp393
a(g1
(g5
g8
tp394
Rp395
g1
(g5
g8
tp396
Rp397
g1
(g5
g8
tp398
Rp399
tp400
a(g1
(g5
g8
tp401
Rp402
g1
(g5
g8
tp403
Rp404
g1
(g5
g8
tp405
Rp406
tp407
a(g1
(g5
g8
tp408
Rp409
g1
(g5
g8
tp410
Rp411
g1
(g5
g8
tp412
Rp413
tp414
a(g1
(g5
g8
tp415
Rp416
g1
(g5
g8
tp417
Rp418
g1
(g5
g8
tp419
Rp420
tp421
a(g1
(g5
g8
tp422
Rp423
g1
(g5
g8
tp424
Rp425
g1
(g5
g8
tp426
Rp427
tp428
a(g1
(g5
g8
tp429
Rp430
g1
(g5
g8
tp431
Rp432
g1
(g5
g8
tp433
Rp434
tp435
a(g1
(g5
g8
tp436
Rp437
g1
(g5
g8
tp438
Rp439
g1
(g5
g8
tp440
Rp441
tp442
a(g1
(g5
g8
tp443
Rp444
g1
(g5
g8
tp445
Rp446
g1
(g5
g8
tp447
Rp448
tp449
a(g1
(g5
g8
tp450
Rp451
g1
(g5
g8
tp452
Rp453
g1
(g5
g8
tp454
Rp455
tp456
a(g1
(g5
g8
tp457
Rp458
g1
(g5
g8
tp459
Rp460
g1
(g5
g8
tp461
Rp462
tp463
a(g1
(g5
g8
tp464
Rp465
g1
(g5
g8
tp466
Rp467
g1
(g5
g8
tp468
Rp469
tp470
a(g1
(g5
g8
tp471
Rp472
g1
(g5
g8
tp473
Rp474
g1
(g5
g8
tp475
Rp476
tp477
a(g1
(g5
g8
tp478
Rp479
g1
(g5
g8
tp480
Rp481
g1
(g5
g8
tp482
Rp483
tp484
a(g1
(g5
g8
tp485
Rp486
g1
(g5
g8
tp487
Rp488
g1
(g5
g8
tp489
Rp490
tp491
a(g1
(g5
g8
tp492
Rp493
g1
(g5
g8
tp494
Rp495
g1
(g5
g8
tp496
Rp497
tp498
a(g1
(g5
g8
tp499
Rp500
g1
(g5
g8
tp501
Rp502
g1
(g5
g8
tp503
Rp504
tp505
a(g1
(g5
g8
tp506
Rp507
g1
(g5
g8
tp508
Rp509
g1
(g5
g8
tp510
Rp511
tp512
a(g1
(g5
g8
tp513
Rp514
g1
(g5
g8
tp515
Rp516
g1
(g5
g8
tp517
Rp518
tp519
a(g1
(g5
g8
tp520
Rp521
g1
(g5
g8
tp522
Rp523
g1
(g5
g8
tp524
Rp525
tp526
a(g1
(g5
g8
tp527
Rp528
g1
(g5
g8
tp529
Rp530
g1
(g5
g8
tp531
Rp532
tp533
a(g1
(g5
g8
tp534
Rp535
g1
(g5
g8
tp536
Rp537
g1
(g5
g8
tp538
Rp539
tp540
a(g1
(g5
g8
tp541
Rp542
g1
(g5
g8
tp543
Rp544
g1
(g5
g8
tp545
Rp546
tp547
a(g1
(g5
g8
tp548
Rp549
g1
(g5
g8
tp550
Rp551
g1
(g5
g8
tp552
Rp553
tp554
a(g1
(g5
g8
tp555
Rp556
g1
(g5
g8
tp557
Rp558
g1
(g5
g8
tp559
Rp560
tp561
a(g1
(g5
g8
tp562
Rp563
g1
(g5
g8
tp564
Rp565
g1
(g5
g8
tp566
Rp567
tp568
a(g1
(g5
g8
tp569
Rp570
g1
(g5
g8
tp571
Rp572
g1
(g5
g8
tp573
Rp574
tp575
a(g1
(g5
g8
tp576
Rp577
g1
(g5
g8
tp578
Rp579
g1
(g5
g8
tp580
Rp581
tp582
a(g1
(g5
g8
tp583
Rp584
g1
(g5
g8
tp585
Rp586
g1
(g5
g8
tp587
Rp588
tp589
a(g1
(g5
g8
tp590
Rp591
g1
(g5
g8
tp592
Rp593
g1
(g5
g8
tp594
Rp595
tp596
a(g1
(g5
g8
tp597
Rp598
g1
(g5
g8
tp599
Rp600
g1
(g5
g8
tp601
Rp602
tp603
a(g1
(g5
g8
tp604
Rp605
g1
(g5
g8
tp606
Rp607
g1
(g5
g8
tp608
Rp609
tp610
a(g1
(g5
g8
tp611
Rp612
g1
(g5
g8
tp613
Rp614
g1
(g5
g8
tp615
Rp616
tp617
a(g1
(g5
g8
tp618
Rp619
g1
(g5
g8
tp620
Rp621
g1
(g5
g8
tp622
Rp623
tp624
a(g1
(g5
g8
tp625
Rp626
g1
(g5
g8
tp627
Rp628
g1
(g5
g8
tp629
Rp630
tp631
a(g1
(g5
g8
tp632
Rp633
g1
(g5
g8
tp634
Rp635
g1
(g5
g8
tp636
Rp637
tp638
a(g1
(g5
g8
tp639
Rp640
g1
(g5
g8
tp641
Rp642
g1
(g5
g8
tp643
Rp644
tp645
a(g1
(g5
g8
tp646
Rp647
g1
(g5
g8
tp648
Rp649
g1
(g5
g8
tp650
Rp651
tp652
a(g1
(g5
g8
tp653
Rp654
g1
(g5
g8
tp655
Rp656
g1
(g5
g8
tp657
Rp658
tp659
a(g1
(g5
g8
tp660
Rp661
g1
(g5
g8
tp662
Rp663
g1
(g5
g8
tp664
Rp665
tp666
a(g1
(g5
g8
tp667
Rp668
g1
(g5
g8
tp669
Rp670
g1
(g5
g8
tp671
Rp672
tp673
a(g1
(g5
g8
tp674
Rp675
g1
(g5
g8
tp676
Rp677
g1
(g5
g8
tp678
Rp679
tp680
a(g1
(g5
g8
tp681
Rp682
g1
(g5
g8
tp683
Rp684
g1
(g5
g8
tp685
Rp686
tp687
a(g1
(g5
g8
tp688
Rp689
g1
(g5
g8
tp690
Rp691
g1
(g5
g8
tp692
Rp693
tp694
a(g1
(g5
g8
tp695
Rp696
g1
(g5
g8
tp697
Rp698
g1
(g5
g8
tp699
Rp700
tp701
a(g1
(g5
g8
tp702
Rp703
g1
(g5
g8
tp704
Rp705
g1
(g5
g8
tp706
Rp707
tp708
a(g1
(g5
g8
tp709
Rp710
g1
(g5
g8
tp711
Rp712
g1
(g5
g8
tp713
Rp714
tp715
a(g1
(g5
g8
tp716
Rp717
g1
(g5
g8
tp718
Rp719
g1
(g5
g8
tp720
Rp721
tp722
a(g1
(g5
g8
tp723
Rp724
g1
(g5
g8
tp725
Rp726
g1
(g5
g8
tp727
Rp728
tp729
a(g1
(g5
g8
tp730
Rp731
g1
(g5
g8
tp732
Rp733
g1
(g5
g8
tp734
Rp735
tp736
a(g1
(g5
g8
tp737
Rp738
g1
(g5
g8
tp739
Rp740
g1
(g5
g8
tp741
Rp742
tp743
a(g1
(g5
g8
tp744
Rp745
g1
(g5
g8
tp746
Rp747
g1
(g5
g8
tp748
Rp749
tp750
a(g1
(g5
g8
tp751
Rp752
g1
(g5
g8
tp753
Rp754
g1
(g5
g8
tp755
Rp756
tp757
a(g1
(g5
g8
tp758
Rp759
g1
(g5
g8
tp760
Rp761
g1
(g5
g8
tp762
Rp763
tp764
a(g1
(g5
g8
tp765
Rp766
g1
(g5
g8
tp767
Rp768
g1
(g5
g8
tp769
Rp770
tp771
a(g1
(g5
g8
tp772
Rp773
g1
(g5
g8
tp774
Rp775
g1
(g5
g8
tp776
Rp777
tp778
a(g1
(g5
g8
tp779
Rp780
g1
(g5
S'\xff'
p781
tp782
Rp783
g1
(g5
g781
tp784
Rp785
tp786
a(g1
(g5
g8
tp787
Rp788
g1
(g5
g781
tp789
Rp790
g1
(g5
g781
tp791
Rp792
tp793
a(g1
(g5
g8
tp794
Rp795
g1
(g5
g781
tp796
Rp797
g1
(g5
g781
tp798
Rp799
tp800
a(g1
(g5
g8
tp801
Rp802
g1
(g5
g781
tp803
Rp804
g1
(g5
g781
tp805
Rp806
tp807
a(g1
(g5
g8
tp808
Rp809
g1
(g5
g781
tp810
Rp811
g1
(g5
g781
tp812
Rp813
tp814
a(g1
(g5
g8
tp815
Rp816
g1
(g5
g8
tp817
Rp818
g1
(g5
g8
tp819
Rp820
tp821
a(g1
(g5
g8
tp822
Rp823
g1
(g5
g8
tp824
Rp825
g1
(g5
g8
tp826
Rp827
tp828
a(g1
(g5
g8
tp829
Rp830
g1
(g5
g8
tp831
Rp832
g1
(g5
g8
tp833
Rp834
tp835
a(g1
(g5
g8
tp836
Rp837
g1
(g5
g8
tp838
Rp839
g1
(g5
g8
tp840
Rp841
tp842
a(g1
(g5
g8
tp843
Rp844
g1
(g5
g8
tp845
Rp846
g1
(g5
g8
tp847
Rp848
tp849
a(g1
(g5
g8
tp850
Rp851
g1
(g5
g8
tp852
Rp853
g1
(g5
g8
tp854
Rp855
tp856
a(g1
(g5
g8
tp857
Rp858
g1
(g5
g8
tp859
Rp860
g1
(g5
g8
tp861
Rp862
tp863
a(g1
(g5
g8
tp864
Rp865
g1
(g5
g8
tp866
Rp867
g1
(g5
g8
tp868
Rp869
tp870
a(g1
(g5
g8
tp871
Rp872
g1
(g5
g8
tp873
Rp874
g1
(g5
g8
tp875
Rp876
tp877
a(g1
(g5
g8
tp878
Rp879
g1
(g5
g8
tp880
Rp881
g1
(g5
g8
tp882
Rp883
tp884
a(g1
(g5
g8
tp885
Rp886
g1
(g5
g8
tp887
Rp888
g1
(g5
g8
tp889
Rp890
tp891
a(g1
(g5
g8
tp892
Rp893
g1
(g5
g8
tp894
Rp895
g1
(g5
g8
tp896
Rp897
tp898
a(g1
(g5
g8
tp899
Rp900
g1
(g5
g8
tp901
Rp902
g1
(g5
g8
tp903
Rp904
tp905
a(g1
(g5
g8
tp906
Rp907
g1
(g5
g8
tp908
Rp909
g1
(g5
g8
tp910
Rp911
tp912
a(g1
(g5
g8
tp913
Rp914
g1
(g5
g8
tp915
Rp916
g1
(g5
g8
tp917
Rp918
tp919
a(g1
(g5
g8
tp920
Rp921
g1
(g5
g8
tp922
Rp923
g1
(g5
g8
tp924
Rp925
tp926
a(g1
(g5
g8
tp927
Rp928
g1
(g5
g8
tp929
Rp930
g1
(g5
g8
tp931
Rp932
tp933
a(g1
(g5
g8
tp934
Rp935
g1
(g5
g8
tp936
Rp937
g1
(g5
g8
tp938
Rp939
tp940
a(g1
(g5
g8
tp941
Rp942
g1
(g5
g8
tp943
Rp944
g1
(g5
g8
tp945
Rp946
tp947
a(g1
(g5
g8
tp948
Rp949
g1
(g5
g8
tp950
Rp951
g1
(g5
g8
tp952
Rp953
tp954
a(g1
(g5
g8
tp955
Rp956
g1
(g5
g8
tp957
Rp958
g1
(g5
g8
tp959
Rp960
tp961
a(g1
(g5
g8
tp962
Rp963
g1
(g5
g8
tp964
Rp965
g1
(g5
g8
tp966
Rp967
tp968
a(g1
(g5
g8
tp969
Rp970
g1
(g5
g8
tp971
Rp972
g1
(g5
g8
tp973
Rp974
tp975
a(g1
(g5
g8
tp976
Rp977
g1
(g5
g8
tp978
Rp979
g1
(g5
g8
tp980
Rp981
tp982
a(g1
(g5
g8
tp983
Rp984
g1
(g5
g8
tp985
Rp986
g1
(g5
g8
tp987
Rp988
tp989
a(g1
(g5
g8
tp990
Rp991
g1
(g5
g8
tp992
Rp993
g1
(g5
g8
tp994
Rp995
tp996
a(g1
(g5
g8
tp997
Rp998
g1
(g5
g8
tp999
Rp1000
g1
(g5
g8
tp1001
Rp1002
tp1003
a(g1
(g5
g8
tp1004
Rp1005
g1
(g5
g8
tp1006
Rp1007
g1
(g5
g8
tp1008
Rp1009
tp1010
a(g1
(g5
g8
tp1011
Rp1012
g1
(g5
g8
tp1013
Rp1014
g1
(g5
g8
tp1015
Rp1016
tp1017
a(g1
(g5
g8
tp1018
Rp1019
g1
(g5
g8
tp1020
Rp1021
g1
(g5
g8
tp1022
Rp1023
tp1024
a(g1
(g5
g8
tp1025
Rp1026
g1
(g5
g8
tp1027
Rp1028
g1
(g5
g8
tp1029
Rp1030
tp1031
a(g1
(g5
g8
tp1032
Rp1033
g1
(g5
g8
tp1034
Rp1035
g1
(g5
g8
tp1036
Rp1037
tp1038
a(g1
(g5
g8
tp1039
Rp1040
g1
(g5
g8
tp1041
Rp1042
g1
(g5
g8
tp1043
Rp1044
tp1045
a(g1
(g5
g8
tp1046
Rp1047
g1
(g5
g8
tp1048
Rp1049
g1
(g5
g8
tp1050
Rp1051
tp1052
a(g1
(g5
g8
tp1053
Rp1054
g1
(g5
g8
tp1055
Rp1056
g1
(g5
g8
tp1057
Rp1058
tp1059
a(g1
(g5
g8
tp1060
Rp1061
g1
(g5
g8
tp1062
Rp1063
g1
(g5
g8
tp1064
Rp1065
tp1066
a(g1
(g5
g8
tp1067
Rp1068
g1
(g5
g8
tp1069
Rp1070
g1
(g5
g8
tp1071
Rp1072
tp1073
a(g1
(g5
g8
tp1074
Rp1075
g1
(g5
g8
tp1076
Rp1077
g1
(g5
g8
tp1078
Rp1079
tp1080
a(g1
(g5
g8
tp1081
Rp1082
g1
(g5
g8
tp1083
Rp1084
g1
(g5
g8
tp1085
Rp1086
tp1087
a(g1
(g5
g8
tp1088
Rp1089
g1
(g5
g8
tp1090
Rp1091
g1
(g5
g8
tp1092
Rp1093
tp1094
a(g1
(g5
g8
tp1095
Rp1096
g1
(g5
g781
tp1097
Rp1098
g1
(g5
g781
tp1099
Rp1100
tp1101
a(g1
(g5
g8
tp1102
Rp1103
g1
(g5
g781
tp1104
Rp1105
g1
(g5
g781
tp1106
Rp1107
tp1108
a(g1
(g5
g8
tp1109
Rp1110
g1
(g5
g781
tp1111
Rp1112
g1
(g5
g781
tp1113
Rp1114
tp1115
a(g1
(g5
g8
tp1116
Rp1117
g1
(g5
g781
tp1118
Rp1119
g1
(g5
g781
tp1120
Rp1121
tp1122
a(g1
(g5
g8
tp1123
Rp1124
g1
(g5
g781
tp1125
Rp1126
g1
(g5
g781
tp1127
Rp1128
tp1129
a(g1
(g5
g8
tp1130
Rp1131
g1
(g5
g781
tp1132
Rp1133
g1
(g5
g781
tp1134
Rp1135
tp1136
a(g1
(g5
g8
tp1137
Rp1138
g1
(g5
g781
tp1139
Rp1140
g1
(g5
g781
tp1141
Rp1142
tp1143
a(g1
(g5
g8
tp1144
Rp1145
g1
(g5
g8
tp1146
Rp1147
g1
(g5
g8
tp1148
Rp1149
tp1150
a(g1
(g5
g8
tp1151
Rp1152
g1
(g5
g8
tp1153
Rp1154
g1
(g5
g8
tp1155
Rp1156
tp1157
a(g1
(g5
g8
tp1158
Rp1159
g1
(g5
g8
tp1160
Rp1161
g1
(g5
g8
tp1162
Rp1163
tp1164
a(g1
(g5
g8
tp1165
Rp1166
g1
(g5
g8
tp1167
Rp1168
g1
(g5
g8
tp1169
Rp1170
tp1171
a(g1
(g5
g8
tp1172
Rp1173
g1
(g5
g8
tp1174
Rp1175
g1
(g5
g8
tp1176
Rp1177
tp1178
a(g1
(g5
g8
tp1179
Rp1180
g1
(g5
g8
tp1181
Rp1182
g1
(g5
g8
tp1183
Rp1184
tp1185
a(g1
(g5
g8
tp1186
Rp1187
g1
(g5
g8
tp1188
Rp1189
g1
(g5
g8
tp1190
Rp1191
tp1192
a(g1
(g5
g8
tp1193
Rp1194
g1
(g5
g8
tp1195
Rp1196
g1
(g5
g8
tp1197
Rp1198
tp1199
a(g1
(g5
g8
tp1200
Rp1201
g1
(g5
g8
tp1202
Rp1203
g1
(g5
g8
tp1204
Rp1205
tp1206
a(g1
(g5
g8
tp1207
Rp1208
g1
(g5
g8
tp1209
Rp1210
g1
(g5
g8
tp1211
Rp1212
tp1213
a(g1
(g5
g8
tp1214
Rp1215
g1
(g5
g8
tp1216
Rp1217
g1
(g5
g8
tp1218
Rp1219
tp1220
a(g1
(g5
g8
tp1221
Rp1222
g1
(g5
g8
tp1223
Rp1224
g1
(g5
g8
tp1225
Rp1226
tp1227
a(g1
(g5
g8
tp1228
Rp1229
g1
(g5
g8
tp1230
Rp1231
g1
(g5
g8
tp1232
Rp1233
tp1234
a(g1
(g5
g8
tp1235
Rp1236
g1
(g5
g8
tp1237
Rp1238
g1
(g5
g8
tp1239
Rp1240
tp1241
a(g1
(g5
g8
tp1242
Rp1243
g1
(g5
g8
tp1244
Rp1245
g1
(g5
g8
tp1246
Rp1247
tp1248
a(g1
(g5
g8
tp1249
Rp1250
g1
(g5
g8
tp1251
Rp1252
g1
(g5
g8
tp1253
Rp1254
tp1255
a(g1
(g5
g8
tp1256
Rp1257
g1
(g5
g8
tp1258
Rp1259
g1
(g5
g8
tp1260
Rp1261
tp1262
a(g1
(g5
g8
tp1263
Rp1264
g1
(g5
g8
tp1265
Rp1266
g1
(g5
g8
tp1267
Rp1268
tp1269
a(g1
(g5
g8
tp1270
Rp1271
g1
(g5
g8
tp1272
Rp1273
g1
(g5
g781
tp1274
Rp1275
tp1276
a(g1
(g5
g8
tp1277
Rp1278
g1
(g5
g8
tp1279
Rp1280
g1
(g5
g8
tp1281
Rp1282
tp1283
a(g1
(g5
g8
tp1284
Rp1285
g1
(g5
g8
tp1286
Rp1287
g1
(g5
g8
tp1288
Rp1289
tp1290
a(g1
(g5
g8
tp1291
Rp1292
g1
(g5
g8
tp1293
Rp1294
g1
(g5
g8
tp1295
Rp1296
tp1297
a(g1
(g5
g8
tp1298
Rp1299
g1
(g5
g8
tp1300
Rp1301
g1
(g5
g8
tp1302
Rp1303
tp1304
a(g1
(g5
g8
tp1305
Rp1306
g1
(g5
g8
tp1307
Rp1308
g1
(g5
g8
tp1309
Rp1310
tp1311
a(g1
(g5
g8
tp1312
Rp1313
g1
(g5
g8
tp1314
Rp1315
g1
(g5
g8
tp1316
Rp1317
tp1318
a(g1
(g5
g8
tp1319
Rp1320
g1
(g5
g8
tp1321
Rp1322
g1
(g5
g8
tp1323
Rp1324
tp1325
a(g1
(g5
g8
tp1326
Rp1327
g1
(g5
g8
tp1328
Rp1329
g1
(g5
g8
tp1330
Rp1331
tp1332
a(g1
(g5
g8
tp1333
Rp1334
g1
(g5
g8
tp1335
Rp1336
g1
(g5
g8
tp1337
Rp1338
tp1339
a(g1
(g5
g8
tp1340
Rp1341
g1
(g5
g8
tp1342
Rp1343
g1
(g5
g8
tp1344
Rp1345
tp1346
a(g1
(g5
g8
tp1347
Rp1348
g1
(g5
g8
tp1349
Rp1350
g1
(g5
g8
tp1351
Rp1352
tp1353
a(g1
(g5
g8
tp1354
Rp1355
g1
(g5
g8
tp1356
Rp1357
g1
(g5
g8
tp1358
Rp1359
tp1360
a(g1
(g5
g8
tp1361
Rp1362
g1
(g5
g8
tp1363
Rp1364
g1
(g5
g8
tp1365
Rp1366
tp1367
a(g1
(g5
g8
tp1368
Rp1369
g1
(g5
g8
tp1370
Rp1371
g1
(g5
g8
tp1372
Rp1373
tp1374
a(g1
(g5
g8
tp1375
Rp1376
g1
(g5
g8
tp1377
Rp1378
g1
(g5
g8
tp1379
Rp1380
tp1381
a(g1
(g5
g8
tp1382
Rp1383
g1
(g5
g8
tp1384
Rp1385
g1
(g5
g8
tp1386
Rp1387
tp1388
a(g1
(g5
g8
tp1389
Rp1390
g1
(g5
g8
tp1391
Rp1392
g1
(g5
g8
tp1393
Rp1394
tp1395
a(g1
(g5
g8
tp1396
Rp1397
g1
(g5
g8
tp1398
Rp1399
g1
(g5
g8
tp1400
Rp1401
tp1402
a(g1
(g5
g8
tp1403
Rp1404
g1
(g5
g8
tp1405
Rp1406
g1
(g5
g8
tp1407
Rp1408
tp1409
a(g1
(g5
g8
tp1410
Rp1411
g1
(g5
g8
tp1412
Rp1413
g1
(g5
g8
tp1414
Rp1415
tp1416
a(g1
(g5
g8
tp1417
Rp1418
g1
(g5
g781
tp1419
Rp1420
g1
(g5
g781
tp1421
Rp1422
tp1423
a(g1
(g5
g8
tp1424
Rp1425
g1
(g5
g781
tp1426
Rp1427
g1
(g5
g781
tp1428
Rp1429
tp1430
a(g1
(g5
g8
tp1431
Rp1432
g1
(g5
g781
tp1433
Rp1434
g1
(g5
g781
tp1435
Rp1436
tp1437
a(g1
(g5
g8
tp1438
Rp1439
g1
(g5
g781
tp1440
Rp1441
g1
(g5
g781
tp1442
Rp1443
tp1444
a(g1
(g5
g8
tp1445
Rp1446
g1
(g5
g781
tp1447
Rp1448
g1
(g5
g781
tp1449
Rp1450
tp1451
a(g1
(g5
g8
tp1452
Rp1453
g1
(g5
g781
tp1454
Rp1455
g1
(g5
g781
tp1456
Rp1457
tp1458
a(g1
(g5
g8
tp1459
Rp1460
g1
(g5
g781
tp1461
Rp1462
g1
(g5
g781
tp1463
Rp1464
tp1465
a(g1
(g5
g8
tp1466
Rp1467
g1
(g5
g8
tp1468
Rp1469
g1
(g5
g8
tp1470
Rp1471
tp1472
a(g1
(g5
g8
tp1473
Rp1474
g1
(g5
g8
tp1475
Rp1476
g1
(g5
g8
tp1477
Rp1478
tp1479
a(g1
(g5
g8
tp1480
Rp1481
g1
(g5
g8
tp1482
Rp1483
g1
(g5
g8
tp1484
Rp1485
tp1486
a(g1
(g5
g8
tp1487
Rp1488
g1
(g5
g8
tp1489
Rp1490
g1
(g5
g8
tp1491
Rp1492
tp1493
a(g1
(g5
g8
tp1494
Rp1495
g1
(g5
g8
tp1496
Rp1497
g1
(g5
g8
tp1498
Rp1499
tp1500
a(g1
(g5
g8
tp1501
Rp1502
g1
(g5
g8
tp1503
Rp1504
g1
(g5
g8
tp1505
Rp1506
tp1507
a(g1
(g5
g8
tp1508
Rp1509
g1
(g5
g8
tp1510
Rp1511
g1
(g5
g8
tp1512
Rp1513
tp1514
a(g1
(g5
g8
tp1515
Rp1516
g1
(g5
g8
tp1517
Rp1518
g1
(g5
g8
tp1519
Rp1520
tp1521
a(g1
(g5
g8
tp1522
Rp1523
g1
(g5
g8
tp1524
Rp1525
g1
(g5
g8
tp1526
Rp1527
tp1528
a(g1
(g5
g8
tp1529
Rp1530
g1
(g5
g8
tp1531
Rp1532
g1
(g5
g8
tp1533
Rp1534
tp1535
a(g1
(g5
g8
tp1536
Rp1537
g1
(g5
g8
tp1538
Rp1539
g1
(g5
g8
tp1540
Rp1541
tp1542
a(g1
(g5
g8
tp1543
Rp1544
g1
(g5
g8
tp1545
Rp1546
g1
(g5
g8
tp1547
Rp1548
tp1549
a(g1
(g5
g8
tp1550
Rp1551
g1
(g5
g8
tp1552
Rp1553
g1
(g5
g8
tp1554
Rp1555
tp1556
a(g1
(g5
g8
tp1557
Rp1558
g1
(g5
g8
tp1559
Rp1560
g1
(g5
g8
tp1561
Rp1562
tp1563
a(g1
(g5
g8
tp1564
Rp1565
g1
(g5
g8
tp1566
Rp1567
g1
(g5
g8
tp1568
Rp1569
tp1570
a(g1
(g5
g8
tp1571
Rp1572
g1
(g5
g8
tp1573
Rp1574
g1
(g5
g8
tp1575
Rp1576
tp1577
a(g1
(g5
g8
tp1578
Rp1579
g1
(g5
g8
tp1580
Rp1581
g1
(g5
g8
tp1582
Rp1583
tp1584
a(g1
(g5
g8
tp1585
Rp1586
g1
(g5
g8
tp1587
Rp1588
g1
(g5
g781
tp1589
Rp1590
tp1591
a(g1
(g5
g8
tp1592
Rp1593
g1
(g5
g8
tp1594
Rp1595
g1
(g5
g8
tp1596
Rp1597
tp1598
a(g1
(g5
g8
tp1599
Rp1600
g1
(g5
g8
tp1601
Rp1602
g1
(g5
g8
tp1603
Rp1604
tp1605
a(g1
(g5
g8
tp1606
Rp1607
g1
(g5
g8
tp1608
Rp1609
g1
(g5
g8
tp1610
Rp1611
tp1612
a(g1
(g5
g8
tp1613
Rp1614
g1
(g5
g8
tp1615
Rp1616
g1
(g5
g8
tp1617
Rp1618
tp1619
a(g1
(g5
g8
tp1620
Rp1621
g1
(g5
g8
tp1622
Rp1623
g1
(g5
g8
tp1624
Rp1625
tp1626
a(g1
(g5
g8
tp1627
Rp1628
g1
(g5
g8
tp1629
Rp1630
g1
(g5
g8
tp1631
Rp1632
tp1633
a(g1
(g5
g8
tp1634
Rp1635
g1
(g5
g8
tp1636
Rp1637
g1
(g5
g8
tp1638
Rp1639
tp1640
a(g1
(g5
g8
tp1641
Rp1642
g1
(g5
g8
tp1643
Rp1644
g1
(g5
g8
tp1645
Rp1646
tp1647
a(g1
(g5
g8
tp1648
Rp1649
g1
(g5
g8
tp1650
Rp1651
g1
(g5
g8
tp1652
Rp1653
tp1654
a(g1
(g5
g8
tp1655
Rp1656
g1
(g5
g8
tp1657
Rp1658
g1
(g5
g8
tp1659
Rp1660
tp1661
a(g1
(g5
g8
tp1662
Rp1663
g1
(g5
g8
tp1664
Rp1665
g1
(g5
g8
tp1666
Rp1667
tp1668
a(g1
(g5
g8
tp1669
Rp1670
g1
(g5
g8
tp1671
Rp1672
g1
(g5
g8
tp1673
Rp1674
tp1675
a(g1
(g5
g8
tp1676
Rp1677
g1
(g5
g8
tp1678
Rp1679
g1
(g5
g8
tp1680
Rp1681
tp1682
a(g1
(g5
g8
tp1683
Rp1684
g1
(g5
g8
tp1685
Rp1686
g1
(g5
g8
tp1687
Rp1688
tp1689
a(g1
(g5
g8
tp1690
Rp1691
g1
(g5
g8
tp1692
Rp1693
g1
(g5
g8
tp1694
Rp1695
tp1696
a(g1
(g5
g8
tp1697
Rp1698
g1
(g5
g8
tp1699
Rp1700
g1
(g5
g8
tp1701
Rp1702
tp1703
a(g1
(g5
g8
tp1704
Rp1705
g1
(g5
g8
tp1706
Rp1707
g1
(g5
g8
tp1708
Rp1709
tp1710
a(g1
(g5
g8
tp1711
Rp1712
g1
(g5
g8
tp1713
Rp1714
g1
(g5
g8
tp1715
Rp1716
tp1717
a(g1
(g5
g8
tp1718
Rp1719
g1
(g5
g8
tp1720
Rp1721
g1
(g5
g8
tp1722
Rp1723
tp1724
a(g1
(g5
g8
tp1725
Rp1726
g1
(g5
g8
tp1727
Rp1728
g1
(g5
g8
tp1729
Rp1730
tp1731
a(g1
(g5
g8
tp1732
Rp1733
g1
(g5
g8
tp1734
Rp1735
g1
(g5
g8
tp1736
Rp1737
tp1738
a(g1
(g5
g8
tp1739
Rp1740
g1
(g5
g781
tp1741
Rp1742
g1
(g5
g781
tp1743
Rp1744
tp1745
a(g1
(g5
g8
tp1746
Rp1747
g1
(g5
g781
tp1748
Rp1749
g1
(g5
g781
tp1750
Rp1751
tp1752
a(g1
(g5
g8
tp1753
Rp1754
g1
(g5
g781
tp1755
Rp1756
g1
(g5
g781
tp1757
Rp1758
tp1759
a(g1
(g5
g8
tp1760
Rp1761
g1
(g5
g781
tp1762
Rp1763
g1
(g5
g781
tp1764
Rp1765
tp1766
a(g1
(g5
g8
tp1767
Rp1768
g1
(g5
g781
tp1769
Rp1770
g1
(g5
g781
tp1771
Rp1772
tp1773
a(g1
(g5
g8
tp1774
Rp1775
g1
(g5
g781
tp1776
Rp1777
g1
(g5
g781
tp1778
Rp1779
tp1780
a(g1
(g5
g8
tp1781
Rp1782
g1
(g5
g8
tp1783
Rp1784
g1
(g5
g8
tp1785
Rp1786
tp1787
a(g1
(g5
g8
tp1788
Rp1789
g1
(g5
g8
tp1790
Rp1791
g1
(g5
g8
tp1792
Rp1793
tp1794
a(g1
(g5
g8
tp1795
Rp1796
g1
(g5
g8
tp1797
Rp1798
g1
(g5
g8
tp1799
Rp1800
tp1801
a(g1
(g5
g8
tp1802
Rp1803
g1
(g5
g8
tp1804
Rp1805
g1
(g5
g8
tp1806
Rp1807
tp1808
a(g1
(g5
g8
tp1809
Rp1810
g1
(g5
g8
tp1811
Rp1812
g1
(g5
g8
tp1813
Rp1814
tp1815
a(g1
(g5
g8
tp1816
Rp1817
g1
(g5
g8
tp1818
Rp1819
g1
(g5
g8
tp1820
Rp1821
tp1822
a(g1
(g5
g8
tp1823
Rp1824
g1
(g5
g8
tp1825
Rp1826
g1
(g5
g8
tp1827
Rp1828
tp1829
a(g1
(g5
g8
tp1830
Rp1831
g1
(g5
g8
tp1832
Rp1833
g1
(g5
g8
tp1834
Rp1835
tp1836
a(g1
(g5
g8
tp1837
Rp1838
g1
(g5
g8
tp1839
Rp1840
g1
(g5
g8
tp1841
Rp1842
tp1843
a(g1
(g5
g8
tp1844
Rp1845
g1
(g5
g8
tp1846
Rp1847
g1
(g5
g8
tp1848
Rp1849
tp1850
a(g1
(g5
g8
tp1851
Rp1852
g1
(g5
g8
tp1853
Rp1854
g1
(g5
g8
tp1855
Rp1856
tp1857
a(g1
(g5
g8
tp1858
Rp1859
g1
(g5
g8
tp1860
Rp1861
g1
(g5
g8
tp1862
Rp1863
tp1864
a(g1
(g5
g8
tp1865
Rp1866
g1
(g5
g8
tp1867
Rp1868
g1
(g5
g8
tp1869
Rp1870
tp1871
a(g1
(g5
g8
tp1872
Rp1873
g1
(g5
g8
tp1874
Rp1875
g1
(g5
g8
tp1876
Rp1877
tp1878
a(g1
(g5
g8
tp1879
Rp1880
g1
(g5
g8
tp1881
Rp1882
g1
(g5
g8
tp1883
Rp1884
tp1885
a(g1
(g5
g8
tp1886
Rp1887
g1
(g5
g8
tp1888
Rp1889
g1
(g5
g8
tp1890
Rp1891
tp1892
a(g1
(g5
g8
tp1893
Rp1894
g1
(g5
g8
tp1895
Rp1896
g1
(g5
g8
tp1897
Rp1898
tp1899
a(g1
(g5
g8
tp1900
Rp1901
g1
(g5
g8
tp1902
Rp1903
g1
(g5
g781
tp1904
Rp1905
tp1906
a(g1
(g5
g8
tp1907
Rp1908
g1
(g5
g8
tp1909
Rp1910
g1
(g5
g8
tp1911
Rp1912
tp1913
a(g1
(g5
g8
tp1914
Rp1915
g1
(g5
g8
tp1916
Rp1917
g1
(g5
g8
tp1918
Rp1919
tp1920
a(g1
(g5
g8
tp1921
Rp1922
g1
(g5
g8
tp1923
Rp1924
g1
(g5
g8
tp1925
Rp1926
tp1927
a(g1
(g5
g8
tp1928
Rp1929
g1
(g5
g8
tp1930
Rp1931
g1
(g5
g8
tp1932
Rp1933
tp1934
a(g1
(g5
g8
tp1935
Rp1936
g1
(g5
g8
tp1937
Rp1938
g1
(g5
g8
tp1939
Rp1940
tp1941
a(g1
(g5
g8
tp1942
Rp1943
g1
(g5
g8
tp1944
Rp1945
g1
(g5
g8
tp1946
Rp1947
tp1948
a(g1
(g5
g8
tp1949
Rp1950
g1
(g5
g8
tp1951
Rp1952
g1
(g5
g8
tp1953
Rp1954
tp1955
a(g1
(g5
g8
tp1956
Rp1957
g1
(g5
g8
tp1958
Rp1959
g1
(g5
g8
tp1960
Rp1961
tp1962
a(g1
(g5
g8
tp1963
Rp1964
g1
(g5
g8
tp1965
Rp1966
g1
(g5
g8
tp1967
Rp1968
tp1969
a(g1
(g5
g8
tp1970
Rp1971
g1
(g5
g8
tp1972
Rp1973
g1
(g5
g8
tp1974
Rp1975
tp1976
a(g1
(g5
g8
tp1977
Rp1978
g1
(g5
g8
tp1979
Rp1980
g1
(g5
g8
tp1981
Rp1982
tp1983
a(g1
(g5
g8
tp1984
Rp1985
g1
(g5
g8
tp1986
Rp1987
g1
(g5
g8
tp1988
Rp1989
tp1990
a(g1
(g5
g8
tp1991
Rp1992
g1
(g5
g8
tp1993
Rp1994
g1
(g5
g8
tp1995
Rp1996
tp1997
a(g1
(g5
g8
tp1998
Rp1999
g1
(g5
g8
tp2000
Rp2001
g1
(g5
g8
tp2002
Rp2003
tp2004
a(g1
(g5
g8
tp2005
Rp2006
g1
(g5
g8
tp2007
Rp2008
g1
(g5
g8
tp2009
Rp2010
tp2011
a(g1
(g5
g8
tp2012
Rp2013
g1
(g5
g8
tp2014
Rp2015
g1
(g5
g8
tp2016
Rp2017
tp2018
a(g1
(g5
g8
tp2019
Rp2020
g1
(g5
g8
tp2021
Rp2022
g1
(g5
g8
tp2023
Rp2024
tp2025
a(g1
(g5
g8
tp2026
Rp2027
g1
(g5
g8
tp2028
Rp2029
g1
(g5
g8
tp2030
Rp2031
tp2032
a(g1
(g5
g8
tp2033
Rp2034
g1
(g5
g8
tp2035
Rp2036
g1
(g5
g8
tp2037
Rp2038
tp2039
a(g1
(g5
g8
tp2040
Rp2041
g1
(g5
g8
tp2042
Rp2043
g1
(g5
g8
tp2044
Rp2045
tp2046
a(g1
(g5
g8
tp2047
Rp2048
g1
(g5
g8
tp2049
Rp2050
g1
(g5
g8
tp2051
Rp2052
tp2053
a(g1
(g5
g8
tp2054
Rp2055
g1
(g5
g8
tp2056
Rp2057
g1
(g5
g8
tp2058
Rp2059
tp2060
a(g1
(g5
g8
tp2061
Rp2062
g1
(g5
g781
tp2063
Rp2064
g1
(g5
g781
tp2065
Rp2066
tp2067
a(g1
(g5
g8
tp2068
Rp2069
g1
(g5
g781
tp2070
Rp2071
g1
(g5
g781
tp2072
Rp2073
tp2074
a(g1
(g5
g8
tp2075
Rp2076
g1
(g5
g781
tp2077
Rp2078
g1
(g5
g781
tp2079
Rp2080
tp2081
a(g1
(g5
g8
tp2082
Rp2083
g1
(g5
g781
tp2084
Rp2085
g1
(g5
g781
tp2086
Rp2087
tp2088
a(g1
(g5
g8
tp2089
Rp2090
g1
(g5
g781
tp2091
Rp2092
g1
(g5
g781
tp2093
Rp2094
tp2095
a(g1
(g5
g8
tp2096
Rp2097
g1
(g5
g781
tp2098
Rp2099
g1
(g5
g781
tp2100
Rp2101
tp2102
a(g1
(g5
g8
tp2103
Rp2104
g1
(g5
g8
tp2105
Rp2106
g1
(g5
g8
tp2107
Rp2108
tp2109
a(g1
(g5
g8
tp2110
Rp2111
g1
(g5
g8
tp2112
Rp2113
g1
(g5
g8
tp2114
Rp2115
tp2116
a(g1
(g5
g8
tp2117
Rp2118
g1
(g5
g8
tp2119
Rp2120
g1
(g5
g8
tp2121
Rp2122
tp2123
a(g1
(g5
g8
tp2124
Rp2125
g1
(g5
g8
tp2126
Rp2127
g1
(g5
g8
tp2128
Rp2129
tp2130
a(g1
(g5
g8
tp2131
Rp2132
g1
(g5
g8
tp2133
Rp2134
g1
(g5
g8
tp2135
Rp2136
tp2137
a(g1
(g5
g8
tp2138
Rp2139
g1
(g5
g8
tp2140
Rp2141
g1
(g5
g8
tp2142
Rp2143
tp2144
a(g1
(g5
g8
tp2145
Rp2146
g1
(g5
g8
tp2147
Rp2148
g1
(g5
g8
tp2149
Rp2150
tp2151
a(g1
(g5
g8
tp2152
Rp2153
g1
(g5
g8
tp2154
Rp2155
g1
(g5
g8
tp2156
Rp2157
tp2158
a(g1
(g5
g8
tp2159
Rp2160
g1
(g5
g8
tp2161
Rp2162
g1
(g5
g8
tp2163
Rp2164
tp2165
a(g1
(g5
g8
tp2166
Rp2167
g1
(g5
g8
tp2168
Rp2169
g1
(g5
g8
tp2170
Rp2171
tp2172
a(g1
(g5
g8
tp2173
Rp2174
g1
(g5
g8
tp2175
Rp2176
g1
(g5
g8
tp2177
Rp2178
tp2179
a(g1
(g5
g8
tp2180
Rp2181
g1
(g5
g8
tp2182
Rp2183
g1
(g5
g8
tp2184
Rp2185
tp2186
a(g1
(g5
g8
tp2187
Rp2188
g1
(g5
g8
tp2189
Rp2190
g1
(g5
g8
tp2191
Rp2192
tp2193
a(g1
(g5
g8
tp2194
Rp2195
g1
(g5
g8
tp2196
Rp2197
g1
(g5
g8
tp2198
Rp2199
tp2200
a(g1
(g5
g8
tp2201
Rp2202
g1
(g5
g8
tp2203
Rp2204
g1
(g5
g8
tp2205
Rp2206
tp2207
a(g1
(g5
g8
tp2208
Rp2209
g1
(g5
g8
tp2210
Rp2211
g1
(g5
g8
tp2212
Rp2213
tp2214
a(g1
(g5
g8
tp2215
Rp2216
g1
(g5
g8
tp2217
Rp2218
g1
(g5
g781
tp2219
Rp2220
tp2221
a(g1
(g5
g8
tp2222
Rp2223
g1
(g5
g8
tp2224
Rp2225
g1
(g5
g781
tp2226
Rp2227
tp2228
a(g1
(g5
g8
tp2229
Rp2230
g1
(g5
g8
tp2231
Rp2232
g1
(g5
g8
tp2233
Rp2234
tp2235
a(g1
(g5
g8
tp2236
Rp2237
g1
(g5
g8
tp2238
Rp2239
g1
(g5
g8
tp2240
Rp2241
tp2242
a(g1
(g5
g8
tp2243
Rp2244
g1
(g5
g8
tp2245
Rp2246
g1
(g5
g8
tp2247
Rp2248
tp2249
a(g1
(g5
g8
tp2250
Rp2251
g1
(g5
g8
tp2252
Rp2253
g1
(g5
g8
tp2254
Rp2255
tp2256
a(g1
(g5
g8
tp2257
Rp2258
g1
(g5
g8
tp2259
Rp2260
g1
(g5
g8
tp2261
Rp2262
tp2263
a(g1
(g5
g8
tp2264
Rp2265
g1
(g5
g8
tp2266
Rp2267
g1
(g5
g8
tp2268
Rp2269
tp2270
a(g1
(g5
g8
tp2271
Rp2272
g1
(g5
g8
tp2273
Rp2274
g1
(g5
g8
tp2275
Rp2276
tp2277
a(g1
(g5
g8
tp2278
Rp2279
g1
(g5
g8
tp2280
Rp2281
g1
(g5
g8
tp2282
Rp2283
tp2284
a(g1
(g5
g8
tp2285
Rp2286
g1
(g5
g8
tp2287
Rp2288
g1
(g5
g8
tp2289
Rp2290
tp2291
a(g1
(g5
g8
tp2292
Rp2293
g1
(g5
g8
tp2294
Rp2295
g1
(g5
g8
tp2296
Rp2297
tp2298
a(g1
(g5
g8
tp2299
Rp2300
g1
(g5
g8
tp2301
Rp2302
g1
(g5
g8
tp2303
Rp2304
tp2305
a(g1
(g5
g8
tp2306
Rp2307
g1
(g5
g8
tp2308
Rp2309
g1
(g5
g8
tp2310
Rp2311
tp2312
a(g1
(g5
g8
tp2313
Rp2314
g1
(g5
g8
tp2315
Rp2316
g1
(g5
g8
tp2317
Rp2318
tp2319
a(g1
(g5
g8
tp2320
Rp2321
g1
(g5
g8
tp2322
Rp2323
g1
(g5
g8
tp2324
Rp2325
tp2326
a(g1
(g5
g8
tp2327
Rp2328
g1
(g5
g8
tp2329
Rp2330
g1
(g5
g8
tp2331
Rp2332
tp2333
a(g1
(g5
g8
tp2334
Rp2335
g1
(g5
g8
tp2336
Rp2337
g1
(g5
g8
tp2338
Rp2339
tp2340
a(g1
(g5
g8
tp2341
Rp2342
g1
(g5
g8
tp2343
Rp2344
g1
(g5
g8
tp2345
Rp2346
tp2347
a(g1
(g5
g8
tp2348
Rp2349
g1
(g5
g8
tp2350
Rp2351
g1
(g5
g8
tp2352
Rp2353
tp2354
a(g1
(g5
g8
tp2355
Rp2356
g1
(g5
g8
tp2357
Rp2358
g1
(g5
g8
tp2359
Rp2360
tp2361
a(g1
(g5
g8
tp2362
Rp2363
g1
(g5
g8
tp2364
Rp2365
g1
(g5
g8
tp2366
Rp2367
tp2368
a(g1
(g5
g8
tp2369
Rp2370
g1
(g5
g8
tp2371
Rp2372
g1
(g5
g8
tp2373
Rp2374
tp2375
a(g1
(g5
g8
tp2376
Rp2377
g1
(g5
g8
tp2378
Rp2379
g1
(g5
g8
tp2380
Rp2381
tp2382
a(g1
(g5
g8
tp2383
Rp2384
g1
(g5
g781
tp2385
Rp2386
g1
(g5
g781
tp2387
Rp2388
tp2389
a(g1
(g5
g8
tp2390
Rp2391
g1
(g5
g781
tp2392
Rp2393
g1
(g5
g781
tp2394
Rp2395
tp2396
a(g1
(g5
g8
tp2397
Rp2398
g1
(g5
g781
tp2399
Rp2400
g1
(g5
g781
tp2401
Rp2402
tp2403
a(g1
(g5
g8
tp2404
Rp2405
g1
(g5
g781
tp2406
Rp2407
g1
(g5
g781
tp2408
Rp2409
tp2410
a(g1
(g5
g8
tp2411
Rp2412
g1
(g5
g781
tp2413
Rp2414
g1
(g5
g781
tp2415
Rp2416
tp2417
a(g1
(g5
g8
tp2418
Rp2419
g1
(g5
g8
tp2420
Rp2421
g1
(g5
g8
tp2422
Rp2423
tp2424
a(g1
(g5
g8
tp2425
Rp2426
g1
(g5
g8
tp2427
Rp2428
g1
(g5
g8
tp2429
Rp2430
tp2431
a(g1
(g5
g8
tp2432
Rp2433
g1
(g5
g8
tp2434
Rp2435
g1
(g5
g8
tp2436
Rp2437
tp2438
a(g1
(g5
g8
tp2439
Rp2440
g1
(g5
g8
tp2441
Rp2442
g1
(g5
g8
tp2443
Rp2444
tp2445
a(g1
(g5
g8
tp2446
Rp2447
g1
(g5
g8
tp2448
Rp2449
g1
(g5
g8
tp2450
Rp2451
tp2452
a(g1
(g5
g8
tp2453
Rp2454
g1
(g5
g8
tp2455
Rp2456
g1
(g5
g8
tp2457
Rp2458
tp2459
a(g1
(g5
g8
tp2460
Rp2461
g1
(g5
g8
tp2462
Rp2463
g1
(g5
g8
tp2464
Rp2465
tp2466
a(g1
(g5
g8
tp2467
Rp2468
g1
(g5
g8
tp2469
Rp2470
g1
(g5
g8
tp2471
Rp2472
tp2473
a(g1
(g5
g8
tp2474
Rp2475
g1
(g5
g8
tp2476
Rp2477
g1
(g5
g8
tp2478
Rp2479
tp2480
a(g1
(g5
g8
tp2481
Rp2482
g1
(g5
g8
tp2483
Rp2484
g1
(g5
g8
tp2485
Rp2486
tp2487
a(g1
(g5
g8
tp2488
Rp2489
g1
(g5
g8
tp2490
Rp2491
g1
(g5
g8
tp2492
Rp2493
tp2494
a(g1
(g5
g8
tp2495
Rp2496
g1
(g5
g8
tp2497
Rp2498
g1
(g5
g8
tp2499
Rp2500
tp2501
a(g1
(g5
g8
tp2502
Rp2503
g1
(g5
g8
tp2504
Rp2505
g1
(g5
g8
tp2506
Rp2507
tp2508
a(g1
(g5
g8
tp2509
Rp2510
g1
(g5
g8
tp2511
Rp2512
g1
(g5
g8
tp2513
Rp2514
tp2515
a(g1
(g5
g8
tp2516
Rp2517
g1
(g5
g8
tp2518
Rp2519
g1
(g5
g8
tp2520
Rp2521
tp2522
a(g1
(g5
g8
tp2523
Rp2524
g1
(g5
g8
tp2525
Rp2526
g1
(g5
g8
tp2527
Rp2528
tp2529
a(g1
(g5
g8
tp2530
Rp2531
g1
(g5
g8
tp2532
Rp2533
g1
(g5
g781
tp2534
Rp2535
tp2536
a(g1
(g5
g8
tp2537
Rp2538
g1
(g5
g8
tp2539
Rp2540
g1
(g5
g781
tp2541
Rp2542
tp2543
a(g1
(g5
g8
tp2544
Rp2545
g1
(g5
g8
tp2546
Rp2547
g1
(g5
g8
tp2548
Rp2549
tp2550
a(g1
(g5
g8
tp2551
Rp2552
g1
(g5
g8
tp2553
Rp2554
g1
(g5
g8
tp2555
Rp2556
tp2557
a(g1
(g5
g8
tp2558
Rp2559
g1
(g5
g8
tp2560
Rp2561
g1
(g5
g8
tp2562
Rp2563
tp2564
a(g1
(g5
g8
tp2565
Rp2566
g1
(g5
g8
tp2567
Rp2568
g1
(g5
g8
tp2569
Rp2570
tp2571
a(g1
(g5
g8
tp2572
Rp2573
g1
(g5
g8
tp2574
Rp2575
g1
(g5
g8
tp2576
Rp2577
tp2578
a(g1
(g5
g8
tp2579
Rp2580
g1
(g5
g8
tp2581
Rp2582
g1
(g5
g8
tp2583
Rp2584
tp2585
a(g1
(g5
g8
tp2586
Rp2587
g1
(g5
g8
tp2588
Rp2589
g1
(g5
g8
tp2590
Rp2591
tp2592
a(g1
(g5
g8
tp2593
Rp2594
g1
(g5
g8
tp2595
Rp2596
g1
(g5
g8
tp2597
Rp2598
tp2599
a(g1
(g5
g8
tp2600
Rp2601
g1
(g5
g8
tp2602
Rp2603
g1
(g5
g8
tp2604
Rp2605
tp2606
a(g1
(g5
g8
tp2607
Rp2608
g1
(g5
g8
tp2609
Rp2610
g1
(g5
g8
tp2611
Rp2612
tp2613
a(g1
(g5
g8
tp2614
Rp2615
g1
(g5
g8
tp2616
Rp2617
g1
(g5
g8
tp2618
Rp2619
tp2620
a(g1
(g5
g8
tp2621
Rp2622
g1
(g5
g8
tp2623
Rp2624
g1
(g5
g8
tp2625
Rp2626
tp2627
a(g1
(g5
g8
tp2628
Rp2629
g1
(g5
g8
tp2630
Rp2631
g1
(g5
g8
tp2632
Rp2633
tp2634
a(g1
(g5
g8
tp2635
Rp2636
g1
(g5
g8
tp2637
Rp2638
g1
(g5
g8
tp2639
Rp2640
tp2641
a(g1
(g5
g8
tp2642
Rp2643
g1
(g5
g8
tp2644
Rp2645
g1
(g5
g8
tp2646
Rp2647
tp2648
a(g1
(g5
g8
tp2649
Rp2650
g1
(g5
g8
tp2651
Rp2652
g1
(g5
g8
tp2653
Rp2654
tp2655
a(g1
(g5
g8
tp2656
Rp2657
g1
(g5
g8
tp2658
Rp2659
g1
(g5
g8
tp2660
Rp2661
tp2662
a(g1
(g5
g8
tp2663
Rp2664
g1
(g5
g8
tp2665
Rp2666
g1
(g5
g8
tp2667
Rp2668
tp2669
a(g1
(g5
g8
tp2670
Rp2671
g1
(g5
g8
tp2672
Rp2673
g1
(g5
g8
tp2674
Rp2675
tp2676
a(g1
(g5
g8
tp2677
Rp2678
g1
(g5
g8
tp2679
Rp2680
g1
(g5
g8
tp2681
Rp2682
tp2683
a(g1
(g5
g8
tp2684
Rp2685
g1
(g5
g8
tp2686
Rp2687
g1
(g5
g8
tp2688
Rp2689
tp2690
a(g1
(g5
g8
tp2691
Rp2692
g1
(g5
g8
tp2693
Rp2694
g1
(g5
g8
tp2695
Rp2696
tp2697
a(g1
(g5
g8
tp2698
Rp2699
g1
(g5
g8
tp2700
Rp2701
g1
(g5
g8
tp2702
Rp2703
tp2704
a(g1
(g5
g8
tp2705
Rp2706
g1
(g5
g781
tp2707
Rp2708
g1
(g5
g781
tp2709
Rp2710
tp2711
a(g1
(g5
g8
tp2712
Rp2713
g1
(g5
g781
tp2714
Rp2715
g1
(g5
g781
tp2716
Rp2717
tp2718
a(g1
(g5
g8
tp2719
Rp2720
g1
(g5
g781
tp2721
Rp2722
g1
(g5
g781
tp2723
Rp2724
tp2725
a(g1
(g5
g8
tp2726
Rp2727
g1
(g5
g781
tp2728
Rp2729
g1
(g5
g781
tp2730
Rp2731
tp2732
a(g1
(g5
g8
tp2733
Rp2734
g1
(g5
g8
tp2735
Rp2736
g1
(g5
g8
tp2737
Rp2738
tp2739
a(g1
(g5
g8
tp2740
Rp2741
g1
(g5
g8
tp2742
Rp2743
g1
(g5
g8
tp2744
Rp2745
tp2746
a(g1
(g5
g8
tp2747
Rp2748
g1
(g5
g8
tp2749
Rp2750
g1
(g5
g8
tp2751
Rp2752
tp2753
a(g1
(g5
g8
tp2754
Rp2755
g1
(g5
g8
tp2756
Rp2757
g1
(g5
g8
tp2758
Rp2759
tp2760
a(g1
(g5
g8
tp2761
Rp2762
g1
(g5
g8
tp2763
Rp2764
g1
(g5
g8
tp2765
Rp2766
tp2767
a(g1
(g5
g8
tp2768
Rp2769
g1
(g5
g8
tp2770
Rp2771
g1
(g5
g8
tp2772
Rp2773
tp2774
a(g1
(g5
g8
tp2775
Rp2776
g1
(g5
g8
tp2777
Rp2778
g1
(g5
g8
tp2779
Rp2780
tp2781
a(g1
(g5
g8
tp2782
Rp2783
g1
(g5
g8
tp2784
Rp2785
g1
(g5
g8
tp2786
Rp2787
tp2788
a(g1
(g5
g8
tp2789
Rp2790
g1
(g5
g8
tp2791
Rp2792
g1
(g5
g8
tp2793
Rp2794
tp2795
a(g1
(g5
g8
tp2796
Rp2797
g1
(g5
g8
tp2798
Rp2799
g1
(g5
g8
tp2800
Rp2801
tp2802
a(g1
(g5
g8
tp2803
Rp2804
g1
(g5
g8
tp2805
Rp2806
g1
(g5
g8
tp2807
Rp2808
tp2809
a(g1
(g5
g8
tp2810
Rp2811
g1
(g5
g8
tp2812
Rp2813
g1
(g5
g8
tp2814
Rp2815
tp2816
a(g1
(g5
g8
tp2817
Rp2818
g1
(g5
g8
tp2819
Rp2820
g1
(g5
g8
tp2821
Rp2822
tp2823
a(g1
(g5
g8
tp2824
Rp2825
g1
(g5
g8
tp2826
Rp2827
g1
(g5
g8
tp2828
Rp2829
tp2830
a(g1
(g5
g8
tp2831
Rp2832
g1
(g5
g8
tp2833
Rp2834
g1
(g5
g8
tp2835
Rp2836
tp2837
a(g1
(g5
g8
tp2838
Rp2839
g1
(g5
g8
tp2840
Rp2841
g1
(g5
g8
tp2842
Rp2843
tp2844
a(g1
(g5
g8
tp2845
Rp2846
g1
(g5
g8
tp2847
Rp2848
g1
(g5
g781
tp2849
Rp2850
tp2851
a(g1
(g5
g8
tp2852
Rp2853
g1
(g5
g8
tp2854
Rp2855
g1
(g5
g781
tp2856
Rp2857
tp2858
a(g1
(g5
g8
tp2859
Rp2860
g1
(g5
g8
tp2861
Rp2862
g1
(g5
g8
tp2863
Rp2864
tp2865
a(g1
(g5
g8
tp2866
Rp2867
g1
(g5
g8
tp2868
Rp2869
g1
(g5
g8
tp2870
Rp2871
tp2872
a(g1
(g5
g8
tp2873
Rp2874
g1
(g5
g8
tp2875
Rp2876
g1
(g5
g8
tp2877
Rp2878
tp2879
a(g1
(g5
g8
tp2880
Rp2881
g1
(g5
g8
tp2882
Rp2883
g1
(g5
g8
tp2884
Rp2885
tp2886
a(g1
(g5
g8
tp2887
Rp2888
g1
(g5
g8
tp2889
Rp2890
g1
(g5
g8
tp2891
Rp2892
tp2893
a(g1
(g5
g8
tp2894
Rp2895
g1
(g5
g8
tp2896
Rp2897
g1
(g5
g8
tp2898
Rp2899
tp2900
a(g1
(g5
g8
tp2901
Rp2902
g1
(g5
g8
tp2903
Rp2904
g1
(g5
g8
tp2905
Rp2906
tp2907
a(g1
(g5
g8
tp2908
Rp2909
g1
(g5
g8
tp2910
Rp2911
g1
(g5
g8
tp2912
Rp2913
tp2914
a(g1
(g5
g8
tp2915
Rp2916
g1
(g5
g8
tp2917
Rp2918
g1
(g5
g8
tp2919
Rp2920
tp2921
a(g1
(g5
g8
tp2922
Rp2923
g1
(g5
g8
tp2924
Rp2925
g1
(g5
g8
tp2926
Rp2927
tp2928
a(g1
(g5
g8
tp2929
Rp2930
g1
(g5
g8
tp2931
Rp2932
g1
(g5
g8
tp2933
Rp2934
tp2935
a(g1
(g5
g8
tp2936
Rp2937
g1
(g5
g8
tp2938
Rp2939
g1
(g5
g8
tp2940
Rp2941
tp2942
a(g1
(g5
g8
tp2943
Rp2944
g1
(g5
g8
tp2945
Rp2946
g1
(g5
g8
tp2947
Rp2948
tp2949
a(g1
(g5
g8
tp2950
Rp2951
g1
(g5
g8
tp2952
Rp2953
g1
(g5
g8
tp2954
Rp2955
tp2956
a(g1
(g5
g8
tp2957
Rp2958
g1
(g5
g8
tp2959
Rp2960
g1
(g5
g8
tp2961
Rp2962
tp2963
a(g1
(g5
g8
tp2964
Rp2965
g1
(g5
g8
tp2966
Rp2967
g1
(g5
g8
tp2968
Rp2969
tp2970
a(g1
(g5
g8
tp2971
Rp2972
g1
(g5
g8
tp2973
Rp2974
g1
(g5
g8
tp2975
Rp2976
tp2977
a(g1
(g5
g8
tp2978
Rp2979
g1
(g5
g8
tp2980
Rp2981
g1
(g5
g8
tp2982
Rp2983
tp2984
a(g1
(g5
g8
tp2985
Rp2986
g1
(g5
g8
tp2987
Rp2988
g1
(g5
g8
tp2989
Rp2990
tp2991
a(g1
(g5
g8
tp2992
Rp2993
g1
(g5
g8
tp2994
Rp2995
g1
(g5
g8
tp2996
Rp2997
tp2998
a(g1
(g5
g8
tp2999
Rp3000
g1
(g5
g8
tp3001
Rp3002
g1
(g5
g8
tp3003
Rp3004
tp3005
a(g1
(g5
g8
tp3006
Rp3007
g1
(g5
g8
tp3008
Rp3009
g1
(g5
g8
tp3010
Rp3011
tp3012
a(g1
(g5
g8
tp3013
Rp3014
g1
(g5
g781
tp3015
Rp3016
g1
(g5
g781
tp3017
Rp3018
tp3019
a(g1
(g5
g8
tp3020
Rp3021
g1
(g5
g781
tp3022
Rp3023
g1
(g5
g781
tp3024
Rp3025
tp3026
a(g1
(g5
g8
tp3027
Rp3028
g1
(g5
g781
tp3029
Rp3030
g1
(g5
g781
tp3031
Rp3032
tp3033
a(g1
(g5
g8
tp3034
Rp3035
g1
(g5
g781
tp3036
Rp3037
g1
(g5
g781
tp3038
Rp3039
tp3040
a(g1
(g5
g8
tp3041
Rp3042
g1
(g5
g781
tp3043
Rp3044
g1
(g5
g781
tp3045
Rp3046
tp3047
a(g1
(g5
g8
tp3048
Rp3049
g1
(g5
g8
tp3050
Rp3051
g1
(g5
g8
tp3052
Rp3053
tp3054
a(g1
(g5
g8
tp3055
Rp3056
g1
(g5
g8
tp3057
Rp3058
g1
(g5
g8
tp3059
Rp3060
tp3061
a(g1
(g5
g8
tp3062
Rp3063
g1
(g5
g8
tp3064
Rp3065
g1
(g5
g8
tp3066
Rp3067
tp3068
a(g1
(g5
g8
tp3069
Rp3070
g1
(g5
g8
tp3071
Rp3072
g1
(g5
g8
tp3073
Rp3074
tp3075
a(g1
(g5
g8
tp3076
Rp3077
g1
(g5
g8
tp3078
Rp3079
g1
(g5
g8
tp3080
Rp3081
tp3082
a(g1
(g5
g8
tp3083
Rp3084
g1
(g5
g8
tp3085
Rp3086
g1
(g5
g8
tp3087
Rp3088
tp3089
a(g1
(g5
g8
tp3090
Rp3091
g1
(g5
g8
tp3092
Rp3093
g1
(g5
g8
tp3094
Rp3095
tp3096
a(g1
(g5
g8
tp3097
Rp3098
g1
(g5
g8
tp3099
Rp3100
g1
(g5
g8
tp3101
Rp3102
tp3103
a(g1
(g5
g8
tp3104
Rp3105
g1
(g5
g8
tp3106
Rp3107
g1
(g5
g8
tp3108
Rp3109
tp3110
a(g1
(g5
g8
tp3111
Rp3112
g1
(g5
g8
tp3113
Rp3114
g1
(g5
g8
tp3115
Rp3116
tp3117
a(g1
(g5
g8
tp3118
Rp3119
g1
(g5
g8
tp3120
Rp3121
g1
(g5
g8
tp3122
Rp3123
tp3124
a(g1
(g5
g8
tp3125
Rp3126
g1
(g5
g8
tp3127
Rp3128
g1
(g5
g8
tp3129
Rp3130
tp3131
a(g1
(g5
g8
tp3132
Rp3133
g1
(g5
g8
tp3134
Rp3135
g1
(g5
g8
tp3136
Rp3137
tp3138
a(g1
(g5
g8
tp3139
Rp3140
g1
(g5
g8
tp3141
Rp3142
g1
(g5
g8
tp3143
Rp3144
tp3145
a(g1
(g5
g8
tp3146
Rp3147
g1
(g5
g8
tp3148
Rp3149
g1
(g5
g8
tp3150
Rp3151
tp3152
a(g1
(g5
g8
tp3153
Rp3154
g1
(g5
g8
tp3155
Rp3156
g1
(g5
g8
tp3157
Rp3158
tp3159
a(g1
(g5
g8
tp3160
Rp3161
g1
(g5
g8
tp3162
Rp3163
g1
(g5
g781
tp3164
Rp3165
tp3166
a(g1
(g5
g8
tp3167
Rp3168
g1
(g5
g8
tp3169
Rp3170
g1
(g5
g781
tp3171
Rp3172
tp3173
a(g1
(g5
g8
tp3174
Rp3175
g1
(g5
g8
tp3176
Rp3177
g1
(g5
g8
tp3178
Rp3179
tp3180
a(g1
(g5
g8
tp3181
Rp3182
g1
(g5
g8
tp3183
Rp3184
g1
(g5
g8
tp3185
Rp3186
tp3187
a(g1
(g5
g8
tp3188
Rp3189
g1
(g5
g8
tp3190
Rp3191
g1
(g5
g8
tp3192
Rp3193
tp3194
a(g1
(g5
g8
tp3195
Rp3196
g1
(g5
g8
tp3197
Rp3198
g1
(g5
g8
tp3199
Rp3200
tp3201
a(g1
(g5
g8
tp3202
Rp3203
g1
(g5
g8
tp3204
Rp3205
g1
(g5
g8
tp3206
Rp3207
tp3208
a(g1
(g5
g8
tp3209
Rp3210
g1
(g5
g8
tp3211
Rp3212
g1
(g5
g8
tp3213
Rp3214
tp3215
a(g1
(g5
g8
tp3216
Rp3217
g1
(g5
g8
tp3218
Rp3219
g1
(g5
g8
tp3220
Rp3221
tp3222
a(g1
(g5
g8
tp3223
Rp3224
g1
(g5
g8
tp3225
Rp3226
g1
(g5
g8
tp3227
Rp3228
tp3229
a(g1
(g5
g8
tp3230
Rp3231
g1
(g5
g8
tp3232
Rp3233
g1
(g5
g8
tp3234
Rp3235
tp3236
a(g1
(g5
g8
tp3237
Rp3238
g1
(g5
g8
tp3239
Rp3240
g1
(g5
g8
tp3241
Rp3242
tp3243
a(g1
(g5
g8
tp3244
Rp3245
g1
(g5
g8
tp3246
Rp3247
g1
(g5
g8
tp3248
Rp3249
tp3250
a(g1
(g5
g8
tp3251
Rp3252
g1
(g5
g8
tp3253
Rp3254
g1
(g5
g8
tp3255
Rp3256
tp3257
a(g1
(g5
g8
tp3258
Rp3259
g1
(g5
g8
tp3260
Rp3261
g1
(g5
g8
tp3262
Rp3263
tp3264
a(g1
(g5
g8
tp3265
Rp3266
g1
(g5
g8
tp3267
Rp3268
g1
(g5
g8
tp3269
Rp3270
tp3271
a(g1
(g5
g8
tp3272
Rp3273
g1
(g5
g8
tp3274
Rp3275
g1
(g5
g8
tp3276
Rp3277
tp3278
a(g1
(g5
g8
tp3279
Rp3280
g1
(g5
g8
tp3281
Rp3282
g1
(g5
g8
tp3283
Rp3284
tp3285
a(g1
(g5
g8
tp3286
Rp3287
g1
(g5
g8
tp3288
Rp3289
g1
(g5
g8
tp3290
Rp3291
tp3292
a(g1
(g5
g8
tp3293
Rp3294
g1
(g5
g8
tp3295
Rp3296
g1
(g5
g8
tp3297
Rp3298
tp3299
a(g1
(g5
g8
tp3300
Rp3301
g1
(g5
g8
tp3302
Rp3303
g1
(g5
g8
tp3304
Rp3305
tp3306
a(g1
(g5
g8
tp3307
Rp3308
g1
(g5
g8
tp3309
Rp3310
g1
(g5
g8
tp3311
Rp3312
tp3313
a(g1
(g5
g8
tp3314
Rp3315
g1
(g5
g8
tp3316
Rp3317
g1
(g5
g8
tp3318
Rp3319
tp3320
a(g1
(g5
g8
tp3321
Rp3322
g1
(g5
g781
tp3323
Rp3324
g1
(g5
g781
tp3325
Rp3326
tp3327
a(g1
(g5
g8
tp3328
Rp3329
g1
(g5
g781
tp3330
Rp3331
g1
(g5
g781
tp3332
Rp3333
tp3334
a(g1
(g5
g8
tp3335
Rp3336
g1
(g5
g781
tp3337
Rp3338
g1
(g5
g781
tp3339
Rp3340
tp3341
a(g1
(g5
g8
tp3342
Rp3343
g1
(g5
g781
tp3344
Rp3345
g1
(g5
g781
tp3346
Rp3347
tp3348
a(g1
(g5
g8
tp3349
Rp3350
g1
(g5
g781
tp3351
Rp3352
g1
(g5
g781
tp3353
Rp3354
tp3355
a(g1
(g5
g8
tp3356
Rp3357
g1
(g5
g781
tp3358
Rp3359
g1
(g5
g781
tp3360
Rp3361
tp3362
a(g1
(g5
g8
tp3363
Rp3364
g1
(g5
g8
tp3365
Rp3366
g1
(g5
g8
tp3367
Rp3368
tp3369
a(g1
(g5
g8
tp3370
Rp3371
g1
(g5
g8
tp3372
Rp3373
g1
(g5
g8
tp3374
Rp3375
tp3376
a(g1
(g5
g8
tp3377
Rp3378
g1
(g5
g8
tp3379
Rp3380
g1
(g5
g8
tp3381
Rp3382
tp3383
a(g1
(g5
g8
tp3384
Rp3385
g1
(g5
g8
tp3386
Rp3387
g1
(g5
g8
tp3388
Rp3389
tp3390
a(g1
(g5
g8
tp3391
Rp3392
g1
(g5
g8
tp3393
Rp3394
g1
(g5
g8
tp3395
Rp3396
tp3397
a(g1
(g5
g8
tp3398
Rp3399
g1
(g5
g8
tp3400
Rp3401
g1
(g5
g8
tp3402
Rp3403
tp3404
a(g1
(g5
g8
tp3405
Rp3406
g1
(g5
g8
tp3407
Rp3408
g1
(g5
g8
tp3409
Rp3410
tp3411
a(g1
(g5
g8
tp3412
Rp3413
g1
(g5
g8
tp3414
Rp3415
g1
(g5
g8
tp3416
Rp3417
tp3418
a(g1
(g5
g8
tp3419
Rp3420
g1
(g5
g8
tp3421
Rp3422
g1
(g5
g8
tp3423
Rp3424
tp3425
a(g1
(g5
g8
tp3426
Rp3427
g1
(g5
g8
tp3428
Rp3429
g1
(g5
g8
tp3430
Rp3431
tp3432
a(g1
(g5
g8
tp3433
Rp3434
g1
(g5
g8
tp3435
Rp3436
g1
(g5
g8
tp3437
Rp3438
tp3439
a(g1
(g5
g8
tp3440
Rp3441
g1
(g5
g8
tp3442
Rp3443
g1
(g5
g8
tp3444
Rp3445
tp3446
a(g1
(g5
g8
tp3447
Rp3448
g1
(g5
g8
tp3449
Rp3450
g1
(g5
g8
tp3451
Rp3452
tp3453
a(g1
(g5
g8
tp3454
Rp3455
g1
(g5
g8
tp3456
Rp3457
g1
(g5
g8
tp3458
Rp3459
tp3460
a(g1
(g5
g8
tp3461
Rp3462
g1
(g5
g8
tp3463
Rp3464
g1
(g5
g8
tp3465
Rp3466
tp3467
a(g1
(g5
g8
tp3468
Rp3469
g1
(g5
g8
tp3470
Rp3471
g1
(g5
g8
tp3472
Rp3473
tp3474
a(g1
(g5
g8
tp3475
Rp3476
g1
(g5
g8
tp3477
Rp3478
g1
(g5
g781
tp3479
Rp3480
tp3481
a(g1
(g5
g8
tp3482
Rp3483
g1
(g5
g8
tp3484
Rp3485
g1
(g5
g781
tp3486
Rp3487
tp3488
a(g1
(g5
g8
tp3489
Rp3490
g1
(g5
g8
tp3491
Rp3492
g1
(g5
g8
tp3493
Rp3494
tp3495
a(g1
(g5
g8
tp3496
Rp3497
g1
(g5
g8
tp3498
Rp3499
g1
(g5
g8
tp3500
Rp3501
tp3502
a(g1
(g5
g8
tp3503
Rp3504
g1
(g5
g8
tp3505
Rp3506
g1
(g5
g8
tp3507
Rp3508
tp3509
a(g1
(g5
g8
tp3510
Rp3511
g1
(g5
g8
tp3512
Rp3513
g1
(g5
g8
tp3514
Rp3515
tp3516
a(g1
(g5
g8
tp3517
Rp3518
g1
(g5
g8
tp3519
Rp3520
g1
(g5
g8
tp3521
Rp3522
tp3523
a(g1
(g5
g8
tp3524
Rp3525
g1
(g5
g8
tp3526
Rp3527
g1
(g5
g8
tp3528
Rp3529
tp3530
a(g1
(g5
g8
tp3531
Rp3532
g1
(g5
g8
tp3533
Rp3534
g1
(g5
g8
tp3535
Rp3536
tp3537
a(g1
(g5
g8
tp3538
Rp3539
g1
(g5
g8
tp3540
Rp3541
g1
(g5
g8
tp3542
Rp3543
tp3544
a(g1
(g5
g8
tp3545
Rp3546
g1
(g5
g8
tp3547
Rp3548
g1
(g5
g8
tp3549
Rp3550
tp3551
a(g1
(g5
g8
tp3552
Rp3553
g1
(g5
g8
tp3554
Rp3555
g1
(g5
g8
tp3556
Rp3557
tp3558
a(g1
(g5
g8
tp3559
Rp3560
g1
(g5
g8
tp3561
Rp3562
g1
(g5
g8
tp3563
Rp3564
tp3565
a(g1
(g5
g8
tp3566
Rp3567
g1
(g5
g8
tp3568
Rp3569
g1
(g5
g8
tp3570
Rp3571
tp3572
a(g1
(g5
g8
tp3573
Rp3574
g1
(g5
g8
tp3575
Rp3576
g1
(g5
g8
tp3577
Rp3578
tp3579
a(g1
(g5
g8
tp3580
Rp3581
g1
(g5
g8
tp3582
Rp3583
g1
(g5
g8
tp3584
Rp3585
tp3586
a(g1
(g5
g8
tp3587
Rp3588
g1
(g5
g8
tp3589
Rp3590
g1
(g5
g8
tp3591
Rp3592
tp3593
a(g1
(g5
g8
tp3594
Rp3595
g1
(g5
g8
tp3596
Rp3597
g1
(g5
g8
tp3598
Rp3599
tp3600
a(g1
(g5
g8
tp3601
Rp3602
g1
(g5
g8
tp3603
Rp3604
g1
(g5
g8
tp3605
Rp3606
tp3607
a(g1
(g5
g8
tp3608
Rp3609
g1
(g5
g8
tp3610
Rp3611
g1
(g5
g8
tp3612
Rp3613
tp3614
a(g1
(g5
g8
tp3615
Rp3616
g1
(g5
g8
tp3617
Rp3618
g1
(g5
g8
tp3619
Rp3620
tp3621
a(g1
(g5
g8
tp3622
Rp3623
g1
(g5
g8
tp3624
Rp3625
g1
(g5
g8
tp3626
Rp3627
tp3628
a(g1
(g5
g8
tp3629
Rp3630
g1
(g5
g781
tp3631
Rp3632
g1
(g5
g781
tp3633
Rp3634
tp3635
a(g1
(g5
g8
tp3636
Rp3637
g1
(g5
g781
tp3638
Rp3639
g1
(g5
g781
tp3640
Rp3641
tp3642
a(g1
(g5
g8
tp3643
Rp3644
g1
(g5
g781
tp3645
Rp3646
g1
(g5
g781
tp3647
Rp3648
tp3649
a(g1
(g5
g8
tp3650
Rp3651
g1
(g5
g781
tp3652
Rp3653
g1
(g5
g781
tp3654
Rp3655
tp3656
a(g1
(g5
g8
tp3657
Rp3658
g1
(g5
g781
tp3659
Rp3660
g1
(g5
g781
tp3661
Rp3662
tp3663
a(g1
(g5
g8
tp3664
Rp3665
g1
(g5
g781
tp3666
Rp3667
g1
(g5
g781
tp3668
Rp3669
tp3670
a(g1
(g5
g8
tp3671
Rp3672
g1
(g5
g8
tp3673
Rp3674
g1
(g5
g8
tp3675
Rp3676
tp3677
a(g1
(g5
g8
tp3678
Rp3679
g1
(g5
g8
tp3680
Rp3681
g1
(g5
g8
tp3682
Rp3683
tp3684
a(g1
(g5
g8
tp3685
Rp3686
g1
(g5
g8
tp3687
Rp3688
g1
(g5
g8
tp3689
Rp3690
tp3691
a(g1
(g5
g8
tp3692
Rp3693
g1
(g5
g8
tp3694
Rp3695
g1
(g5
g8
tp3696
Rp3697
tp3698
a(g1
(g5
g8
tp3699
Rp3700
g1
(g5
g8
tp3701
Rp3702
g1
(g5
g8
tp3703
Rp3704
tp3705
a(g1
(g5
g8
tp3706
Rp3707
g1
(g5
g8
tp3708
Rp3709
g1
(g5
g8
tp3710
Rp3711
tp3712
a(g1
(g5
g8
tp3713
Rp3714
g1
(g5
g8
tp3715
Rp3716
g1
(g5
g8
tp3717
Rp3718
tp3719
a(g1
(g5
g8
tp3720
Rp3721
g1
(g5
g8
tp3722
Rp3723
g1
(g5
g8
tp3724
Rp3725
tp3726
a(g1
(g5
g8
tp3727
Rp3728
g1
(g5
g8
tp3729
Rp3730
g1
(g5
g8
tp3731
Rp3732
tp3733
a(g1
(g5
g8
tp3734
Rp3735
g1
(g5
g8
tp3736
Rp3737
g1
(g5
g8
tp3738
Rp3739
tp3740
a(g1
(g5
g8
tp3741
Rp3742
g1
(g5
g8
tp3743
Rp3744
g1
(g5
g8
tp3745
Rp3746
tp3747
a(g1
(g5
g8
tp3748
Rp3749
g1
(g5
g8
tp3750
Rp3751
g1
(g5
g8
tp3752
Rp3753
tp3754
a(g1
(g5
g8
tp3755
Rp3756
g1
(g5
g8
tp3757
Rp3758
g1
(g5
g8
tp3759
Rp3760
tp3761
a(g1
(g5
g8
tp3762
Rp3763
g1
(g5
g8
tp3764
Rp3765
g1
(g5
g8
tp3766
Rp3767
tp3768
a(g1
(g5
g8
tp3769
Rp3770
g1
(g5
g8
tp3771
Rp3772
g1
(g5
g8
tp3773
Rp3774
tp3775
a(g1
(g5
g8
tp3776
Rp3777
g1
(g5
g8
tp3778
Rp3779
g1
(g5
g8
tp3780
Rp3781
tp3782
a(g1
(g5
g8
tp3783
Rp3784
g1
(g5
g8
tp3785
Rp3786
g1
(g5
g8
tp3787
Rp3788
tp3789
a(g1
(g5
g8
tp3790
Rp3791
g1
(g5
g8
tp3792
Rp3793
g1
(g5
g781
tp3794
Rp3795
tp3796
a(g1
(g5
g8
tp3797
Rp3798
g1
(g5
g8
tp3799
Rp3800
g1
(g5
g781
tp3801
Rp3802
tp3803
a(g1
(g5
g8
tp3804
Rp3805
g1
(g5
g8
tp3806
Rp3807
g1
(g5
g8
tp3808
Rp3809
tp3810
a(g1
(g5
g8
tp3811
Rp3812
g1
(g5
g8
tp3813
Rp3814
g1
(g5
g8
tp3815
Rp3816
tp3817
a(g1
(g5
g8
tp3818
Rp3819
g1
(g5
g8
tp3820
Rp3821
g1
(g5
g8
tp3822
Rp3823
tp3824
a(g1
(g5
g8
tp3825
Rp3826
g1
(g5
g8
tp3827
Rp3828
g1
(g5
g8
tp3829
Rp3830
tp3831
a(g1
(g5
g8
tp3832
Rp3833
g1
(g5
g8
tp3834
Rp3835
g1
(g5
g8
tp3836
Rp3837
tp3838
a(g1
(g5
g8
tp3839
Rp3840
g1
(g5
g8
tp3841
Rp3842
g1
(g5
g8
tp3843
Rp3844
tp3845
a(g1
(g5
g8
tp3846
Rp3847
g1
(g5
g8
tp3848
Rp3849
g1
(g5
g8
tp3850
Rp3851
tp3852
a(g1
(g5
g8
tp3853
Rp3854
g1
(g5
g8
tp3855
Rp3856
g1
(g5
g8
tp3857
Rp3858
tp3859
a(g1
(g5
g8
tp3860
Rp3861
g1
(g5
g8
tp3862
Rp3863
g1
(g5
g8
tp3864
Rp3865
tp3866
a(g1
(g5
g8
tp3867
Rp3868
g1
(g5
g8
tp3869
Rp3870
g1
(g5
g8
tp3871
Rp3872
tp3873
a(g1
(g5
g8
tp3874
Rp3875
g1
(g5
g8
tp3876
Rp3877
g1
(g5
g8
tp3878
Rp3879
tp3880
a(g1
(g5
g8
tp3881
Rp3882
g1
(g5
g8
tp3883
Rp3884
g1
(g5
g8
tp3885
Rp3886
tp3887
a(g1
(g5
g8
tp3888
Rp3889
g1
(g5
g8
tp3890
Rp3891
g1
(g5
g8
tp3892
Rp3893
tp3894
a(g1
(g5
g8
tp3895
Rp3896
g1
(g5
g8
tp3897
Rp3898
g1
(g5
g8
tp3899
Rp3900
tp3901
a(g1
(g5
g8
tp3902
Rp3903
g1
(g5
g8
tp3904
Rp3905
g1
(g5
g8
tp3906
Rp3907
tp3908
a(g1
(g5
g8
tp3909
Rp3910
g1
(g5
g8
tp3911
Rp3912
g1
(g5
g8
tp3913
Rp3914
tp3915
a(g1
(g5
g8
tp3916
Rp3917
g1
(g5
g8
tp3918
Rp3919
g1
(g5
g8
tp3920
Rp3921
tp3922
a(g1
(g5
g8
tp3923
Rp3924
g1
(g5
g8
tp3925
Rp3926
g1
(g5
g8
tp3927
Rp3928
tp3929
a(g1
(g5
g8
tp3930
Rp3931
g1
(g5
g8
tp3932
Rp3933
g1
(g5
g8
tp3934
Rp3935
tp3936
a(g1
(g5
g8
tp3937
Rp3938
g1
(g5
g781
tp3939
Rp3940
g1
(g5
g781
tp3941
Rp3942
tp3943
a(g1
(g5
g8
tp3944
Rp3945
g1
(g5
g781
tp3946
Rp3947
g1
(g5
g781
tp3948
Rp3949
tp3950
a(g1
(g5
g8
tp3951
Rp3952
g1
(g5
g781
tp3953
Rp3954
g1
(g5
g781
tp3955
Rp3956
tp3957
a(g1
(g5
g8
tp3958
Rp3959
g1
(g5
g781
tp3960
Rp3961
g1
(g5
g781
tp3962
Rp3963
tp3964
a(g1
(g5
g8
tp3965
Rp3966
g1
(g5
g781
tp3967
Rp3968
g1
(g5
g781
tp3969
Rp3970
tp3971
a(g1
(g5
g8
tp3972
Rp3973
g1
(g5
g781
tp3974
Rp3975
g1
(g5
g781
tp3976
Rp3977
tp3978
a(g1
(g5
g8
tp3979
Rp3980
g1
(g5
g781
tp3981
Rp3982
g1
(g5
g781
tp3983
Rp3984
tp3985
a(g1
(g5
g8
tp3986
Rp3987
g1
(g5
g8
tp3988
Rp3989
g1
(g5
g8
tp3990
Rp3991
tp3992
a(g1
(g5
g8
tp3993
Rp3994
g1
(g5
g8
tp3995
Rp3996
g1
(g5
g8
tp3997
Rp3998
tp3999
a(g1
(g5
g8
tp4000
Rp4001
g1
(g5
g8
tp4002
Rp4003
g1
(g5
g8
tp4004
Rp4005
tp4006
a(g1
(g5
g8
tp4007
Rp4008
g1
(g5
g8
tp4009
Rp4010
g1
(g5
g8
tp4011
Rp4012
tp4013
a(g1
(g5
g8
tp4014
Rp4015
g1
(g5
g8
tp4016
Rp4017
g1
(g5
g8
tp4018
Rp4019
tp4020
a(g1
(g5
g8
tp4021
Rp4022
g1
(g5
g8
tp4023
Rp4024
g1
(g5
g8
tp4025
Rp4026
tp4027
a(g1
(g5
g8
tp4028
Rp4029
g1
(g5
g8
tp4030
Rp4031
g1
(g5
g8
tp4032
Rp4033
tp4034
a(g1
(g5
g8
tp4035
Rp4036
g1
(g5
g8
tp4037
Rp4038
g1
(g5
g8
tp4039
Rp4040
tp4041
a(g1
(g5
g8
tp4042
Rp4043
g1
(g5
g8
tp4044
Rp4045
g1
(g5
g8
tp4046
Rp4047
tp4048
a(g1
(g5
g8
tp4049
Rp4050
g1
(g5
g8
tp4051
Rp4052
g1
(g5
g8
tp4053
Rp4054
tp4055
a(g1
(g5
g8
tp4056
Rp4057
g1
(g5
g8
tp4058
Rp4059
g1
(g5
g8
tp4060
Rp4061
tp4062
a(g1
(g5
g8
tp4063
Rp4064
g1
(g5
g8
tp4065
Rp4066
g1
(g5
g8
tp4067
Rp4068
tp4069
a(g1
(g5
g8
tp4070
Rp4071
g1
(g5
g8
tp4072
Rp4073
g1
(g5
g8
tp4074
Rp4075
tp4076
a(g1
(g5
g8
tp4077
Rp4078
g1
(g5
g8
tp4079
Rp4080
g1
(g5
g8
tp4081
Rp4082
tp4083
a(g1
(g5
g8
tp4084
Rp4085
g1
(g5
g8
tp4086
Rp4087
g1
(g5
g8
tp4088
Rp4089
tp4090
a(g1
(g5
g8
tp4091
Rp4092
g1
(g5
g8
tp4093
Rp4094
g1
(g5
g8
tp4095
Rp4096
tp4097
a(g1
(g5
g8
tp4098
Rp4099
g1
(g5
g8
tp4100
Rp4101
g1
(g5
g8
tp4102
Rp4103
tp4104
a(g1
(g5
g8
tp4105
Rp4106
g1
(g5
g8
tp4107
Rp4108
g1
(g5
g781
tp4109
Rp4110
tp4111
a(g1
(g5
g8
tp4112
Rp4113
g1
(g5
g8
tp4114
Rp4115
g1
(g5
g781
tp4116
Rp4117
tp4118
a(g1
(g5
g8
tp4119
Rp4120
g1
(g5
g8
tp4121
Rp4122
g1
(g5
g8
tp4123
Rp4124
tp4125
a(g1
(g5
g8
tp4126
Rp4127
g1
(g5
g8
tp4128
Rp4129
g1
(g5
g8
tp4130
Rp4131
tp4132
a(g1
(g5
g8
tp4133
Rp4134
g1
(g5
g8
tp4135
Rp4136
g1
(g5
g8
tp4137
Rp4138
tp4139
a(g1
(g5
g8
tp4140
Rp4141
g1
(g5
g8
tp4142
Rp4143
g1
(g5
g8
tp4144
Rp4145
tp4146
a(g1
(g5
g8
tp4147
Rp4148
g1
(g5
g8
tp4149
Rp4150
g1
(g5
g8
tp4151
Rp4152
tp4153
a(g1
(g5
g8
tp4154
Rp4155
g1
(g5
g8
tp4156
Rp4157
g1
(g5
g8
tp4158
Rp4159
tp4160
a(g1
(g5
g8
tp4161
Rp4162
g1
(g5
g8
tp4163
Rp4164
g1
(g5
g8
tp4165
Rp4166
tp4167
a(g1
(g5
g8
tp4168
Rp4169
g1
(g5
g8
tp4170
Rp4171
g1
(g5
g8
tp4172
Rp4173
tp4174
a(g1
(g5
g8
tp4175
Rp4176
g1
(g5
g8
tp4177
Rp4178
g1
(g5
g8
tp4179
Rp4180
tp4181
a(g1
(g5
g8
tp4182
Rp4183
g1
(g5
g8
tp4184
Rp4185
g1
(g5
g8
tp4186
Rp4187
tp4188
a(g1
(g5
g8
tp4189
Rp4190
g1
(g5
g8
tp4191
Rp4192
g1
(g5
g8
tp4193
Rp4194
tp4195
a(g1
(g5
g8
tp4196
Rp4197
g1
(g5
g8
tp4198
Rp4199
g1
(g5
g8
tp4200
Rp4201
tp4202
a(g1
(g5
g8
tp4203
Rp4204
g1
(g5
g8
tp4205
Rp4206
g1
(g5
g8
tp4207
Rp4208
tp4209
a(g1
(g5
g8
tp4210
Rp4211
g1
(g5
g8
tp4212
Rp4213
g1
(g5
g8
tp4214
Rp4215
tp4216
a(g1
(g5
g8
tp4217
Rp4218
g1
(g5
g8
tp4219
Rp4220
g1
(g5
g8
tp4221
Rp4222
tp4223
a(g1
(g5
g8
tp4224
Rp4225
g1
(g5
g8
tp4226
Rp4227
g1
(g5
g8
tp4228
Rp4229
tp4230
a(g1
(g5
g8
tp4231
Rp4232
g1
(g5
g8
tp4233
Rp4234
g1
(g5
g8
tp4235
Rp4236
tp4237
a(g1
(g5
g8
tp4238
Rp4239
g1
(g5
g8
tp4240
Rp4241
g1
(g5
g8
tp4242
Rp4243
tp4244
a(g1
(g5
g8
tp4245
Rp4246
g1
(g5
g781
tp4247
Rp4248
g1
(g5
g781
tp4249
Rp4250
tp4251
a(g1
(g5
g8
tp4252
Rp4253
g1
(g5
g781
tp4254
Rp4255
g1
(g5
g781
tp4256
Rp4257
tp4258
a(g1
(g5
g8
tp4259
Rp4260
g1
(g5
g781
tp4261
Rp4262
g1
(g5
g781
tp4263
Rp4264
tp4265
a(g1
(g5
g8
tp4266
Rp4267
g1
(g5
g781
tp4268
Rp4269
g1
(g5
g781
tp4270
Rp4271
tp4272
a(g1
(g5
g8
tp4273
Rp4274
g1
(g5
g781
tp4275
Rp4276
g1
(g5
g781
tp4277
Rp4278
tp4279
a(g1
(g5
g8
tp4280
Rp4281
g1
(g5
g781
tp4282
Rp4283
g1
(g5
g781
tp4284
Rp4285
tp4286
a(g1
(g5
g8
tp4287
Rp4288
g1
(g5
g781
tp4289
Rp4290
g1
(g5
g781
tp4291
Rp4292
tp4293
a(g1
(g5
g8
tp4294
Rp4295
g1
(g5
g8
tp4296
Rp4297
g1
(g5
g8
tp4298
Rp4299
tp4300
a(g1
(g5
g8
tp4301
Rp4302
g1
(g5
g8
tp4303
Rp4304
g1
(g5
g8
tp4305
Rp4306
tp4307
a(g1
(g5
g8
tp4308
Rp4309
g1
(g5
g8
tp4310
Rp4311
g1
(g5
g8
tp4312
Rp4313
tp4314
a(g1
(g5
g8
tp4315
Rp4316
g1
(g5
g8
tp4317
Rp4318
g1
(g5
g8
tp4319
Rp4320
tp4321
a(g1
(g5
g8
tp4322
Rp4323
g1
(g5
g8
tp4324
Rp4325
g1
(g5
g8
tp4326
Rp4327
tp4328
a(g1
(g5
g8
tp4329
Rp4330
g1
(g5
g8
tp4331
Rp4332
g1
(g5
g8
tp4333
Rp4334
tp4335
a(g1
(g5
g8
tp4336
Rp4337
g1
(g5
g8
tp4338
Rp4339
g1
(g5
g8
tp4340
Rp4341
tp4342
a(g1
(g5
g8
tp4343
Rp4344
g1
(g5
g8
tp4345
Rp4346
g1
(g5
g8
tp4347
Rp4348
tp4349
a(g1
(g5
g8
tp4350
Rp4351
g1
(g5
g8
tp4352
Rp4353
g1
(g5
g8
tp4354
Rp4355
tp4356
a(g1
(g5
g8
tp4357
Rp4358
g1
(g5
g8
tp4359
Rp4360
g1
(g5
g8
tp4361
Rp4362
tp4363
a(g1
(g5
g8
tp4364
Rp4365
g1
(g5
g8
tp4366
Rp4367
g1
(g5
g8
tp4368
Rp4369
tp4370
a(g1
(g5
g8
tp4371
Rp4372
g1
(g5
g8
tp4373
Rp4374
g1
(g5
g8
tp4375
Rp4376
tp4377
a(g1
(g5
g8
tp4378
Rp4379
g1
(g5
g8
tp4380
Rp4381
g1
(g5
g8
tp4382
Rp4383
tp4384
a(g1
(g5
g8
tp4385
Rp4386
g1
(g5
g8
tp4387
Rp4388
g1
(g5
g8
tp4389
Rp4390
tp4391
a(g1
(g5
g8
tp4392
Rp4393
g1
(g5
g8
tp4394
Rp4395
g1
(g5
g8
tp4396
Rp4397
tp4398
a(g1
(g5
g8
tp4399
Rp4400
g1
(g5
g8
tp4401
Rp4402
g1
(g5
g8
tp4403
Rp4404
tp4405
a(g1
(g5
g8
tp4406
Rp4407
g1
(g5
g8
tp4408
Rp4409
g1
(g5
g8
tp4410
Rp4411
tp4412
a(g1
(g5
g8
tp4413
Rp4414
g1
(g5
g8
tp4415
Rp4416
g1
(g5
g8
tp4417
Rp4418
tp4419
a(g1
(g5
g8
tp4420
Rp4421
g1
(g5
g8
tp4422
Rp4423
g1
(g5
g8
tp4424
Rp4425
tp4426
a(g1
(g5
g8
tp4427
Rp4428
g1
(g5
g8
tp4429
Rp4430
g1
(g5
g781
tp4431
Rp4432
tp4433
a(g1
(g5
g8
tp4434
Rp4435
g1
(g5
g8
tp4436
Rp4437
g1
(g5
g8
tp4438
Rp4439
tp4440
a(g1
(g5
g8
tp4441
Rp4442
g1
(g5
g8
tp4443
Rp4444
g1
(g5
g8
tp4445
Rp4446
tp4447
a(g1
(g5
g8
tp4448
Rp4449
g1
(g5
g8
tp4450
Rp4451
g1
(g5
g8
tp4452
Rp4453
tp4454
a(g1
(g5
g8
tp4455
Rp4456
g1
(g5
g8
tp4457
Rp4458
g1
(g5
g8
tp4459
Rp4460
tp4461
a(g1
(g5
g8
tp4462
Rp4463
g1
(g5
g8
tp4464
Rp4465
g1
(g5
g8
tp4466
Rp4467
tp4468
a(g1
(g5
g8
tp4469
Rp4470
g1
(g5
g8
tp4471
Rp4472
g1
(g5
g8
tp4473
Rp4474
tp4475
a(g1
(g5
g8
tp4476
Rp4477
g1
(g5
g8
tp4478
Rp4479
g1
(g5
g8
tp4480
Rp4481
tp4482
a(g1
(g5
g8
tp4483
Rp4484
g1
(g5
g8
tp4485
Rp4486
g1
(g5
g8
tp4487
Rp4488
tp4489
a(g1
(g5
g8
tp4490
Rp4491
g1
(g5
g8
tp4492
Rp4493
g1
(g5
g8
tp4494
Rp4495
tp4496
a(g1
(g5
g8
tp4497
Rp4498
g1
(g5
g8
tp4499
Rp4500
g1
(g5
g8
tp4501
Rp4502
tp4503
a(g1
(g5
g8
tp4504
Rp4505
g1
(g5
g8
tp4506
Rp4507
g1
(g5
g8
tp4508
Rp4509
tp4510
a(g1
(g5
g8
tp4511
Rp4512
g1
(g5
g8
tp4513
Rp4514
g1
(g5
g8
tp4515
Rp4516
tp4517
a(g1
(g5
g8
tp4518
Rp4519
g1
(g5
g8
tp4520
Rp4521
g1
(g5
g8
tp4522
Rp4523
tp4524
a(g1
(g5
g8
tp4525
Rp4526
g1
(g5
g8
tp4527
Rp4528
g1
(g5
g8
tp4529
Rp4530
tp4531
a(g1
(g5
g8
tp4532
Rp4533
g1
(g5
g8
tp4534
Rp4535
g1
(g5
g8
tp4536
Rp4537
tp4538
a(g1
(g5
g8
tp4539
Rp4540
g1
(g5
g8
tp4541
Rp4542
g1
(g5
g8
tp4543
Rp4544
tp4545
a(g1
(g5
g8
tp4546
Rp4547
g1
(g5
g8
tp4548
Rp4549
g1
(g5
g8
tp4550
Rp4551
tp4552
a(g1
(g5
g8
tp4553
Rp4554
g1
(g5
g8
tp4555
Rp4556
g1
(g5
g8
tp4557
Rp4558
tp4559
a(g1
(g5
g8
tp4560
Rp4561
g1
(g5
g781
tp4562
Rp4563
g1
(g5
g781
tp4564
Rp4565
tp4566
a(g1
(g5
g8
tp4567
Rp4568
g1
(g5
g781
tp4569
Rp4570
g1
(g5
g781
tp4571
Rp4572
tp4573
a(g1
(g5
g8
tp4574
Rp4575
g1
(g5
g781
tp4576
Rp4577
g1
(g5
g781
tp4578
Rp4579
tp4580
a(g1
(g5
g8
tp4581
Rp4582
g1
(g5
g781
tp4583
Rp4584
g1
(g5
g781
tp4585
Rp4586
tp4587
a(g1
(g5
g8
tp4588
Rp4589
g1
(g5
g781
tp4590
Rp4591
g1
(g5
g781
tp4592
Rp4593
tp4594
a(g1
(g5
g8
tp4595
Rp4596
g1
(g5
g8
tp4597
Rp4598
g1
(g5
g8
tp4599
Rp4600
tp4601
a(g1
(g5
g8
tp4602
Rp4603
g1
(g5
g8
tp4604
Rp4605
g1
(g5
g8
tp4606
Rp4607
tp4608
a(g1
(g5
g8
tp4609
Rp4610
g1
(g5
g8
tp4611
Rp4612
g1
(g5
g8
tp4613
Rp4614
tp4615
a(g1
(g5
g8
tp4616
Rp4617
g1
(g5
g8
tp4618
Rp4619
g1
(g5
g8
tp4620
Rp4621
tp4622
a(g1
(g5
g8
tp4623
Rp4624
g1
(g5
g8
tp4625
Rp4626
g1
(g5
g8
tp4627
Rp4628
tp4629
a(g1
(g5
g8
tp4630
Rp4631
g1
(g5
g8
tp4632
Rp4633
g1
(g5
g8
tp4634
Rp4635
tp4636
a(g1
(g5
g8
tp4637
Rp4638
g1
(g5
g8
tp4639
Rp4640
g1
(g5
g8
tp4641
Rp4642
tp4643
a(g1
(g5
g8
tp4644
Rp4645
g1
(g5
g8
tp4646
Rp4647
g1
(g5
g8
tp4648
Rp4649
tp4650
a(g1
(g5
g8
tp4651
Rp4652
g1
(g5
g8
tp4653
Rp4654
g1
(g5
g8
tp4655
Rp4656
tp4657
a(g1
(g5
g8
tp4658
Rp4659
g1
(g5
g8
tp4660
Rp4661
g1
(g5
g8
tp4662
Rp4663
tp4664
a(g1
(g5
g8
tp4665
Rp4666
g1
(g5
g8
tp4667
Rp4668
g1
(g5
g8
tp4669
Rp4670
tp4671
a(g1
(g5
g8
tp4672
Rp4673
g1
(g5
g8
tp4674
Rp4675
g1
(g5
g8
tp4676
Rp4677
tp4678
a(g1
(g5
g8
tp4679
Rp4680
g1
(g5
g8
tp4681
Rp4682
g1
(g5
g8
tp4683
Rp4684
tp4685
a(g1
(g5
g8
tp4686
Rp4687
g1
(g5
g8
tp4688
Rp4689
g1
(g5
g8
tp4690
Rp4691
tp4692
a(g1
(g5
g8
tp4693
Rp4694
g1
(g5
g8
tp4695
Rp4696
g1
(g5
g8
tp4697
Rp4698
tp4699
a(g1
(g5
g8
tp4700
Rp4701
g1
(g5
g8
tp4702
Rp4703
g1
(g5
g8
tp4704
Rp4705
tp4706
a(g1
(g5
g8
tp4707
Rp4708
g1
(g5
g8
tp4709
Rp4710
g1
(g5
g8
tp4711
Rp4712
tp4713
a(g1
(g5
g8
tp4714
Rp4715
g1
(g5
g8
tp4716
Rp4717
g1
(g5
g8
tp4718
Rp4719
tp4720
a(g1
(g5
g8
tp4721
Rp4722
g1
(g5
g8
tp4723
Rp4724
g1
(g5
g8
tp4725
Rp4726
tp4727
a(g1
(g5
g8
tp4728
Rp4729
g1
(g5
g8
tp4730
Rp4731
g1
(g5
g8
tp4732
Rp4733
tp4734
a(g1
(g5
g8
tp4735
Rp4736
g1
(g5
g8
tp4737
Rp4738
g1
(g5
g8
tp4739
Rp4740
tp4741
a(g1
(g5
g8
tp4742
Rp4743
g1
(g5
g8
tp4744
Rp4745
g1
(g5
g8
tp4746
Rp4747
tp4748
a(g1
(g5
g8
tp4749
Rp4750
g1
(g5
g8
tp4751
Rp4752
g1
(g5
g8
tp4753
Rp4754
tp4755
a(g1
(g5
g8
tp4756
Rp4757
g1
(g5
g8
tp4758
Rp4759
g1
(g5
g8
tp4760
Rp4761
tp4762
a(g1
(g5
g8
tp4763
Rp4764
g1
(g5
g8
tp4765
Rp4766
g1
(g5
g8
tp4767
Rp4768
tp4769
a(g1
(g5
g8
tp4770
Rp4771
g1
(g5
g8
tp4772
Rp4773
g1
(g5
g8
tp4774
Rp4775
tp4776
a(g1
(g5
g8
tp4777
Rp4778
g1
(g5
g8
tp4779
Rp4780
g1
(g5
g8
tp4781
Rp4782
tp4783
a(g1
(g5
g8
tp4784
Rp4785
g1
(g5
g8
tp4786
Rp4787
g1
(g5
g8
tp4788
Rp4789
tp4790
a(g1
(g5
g8
tp4791
Rp4792
g1
(g5
g8
tp4793
Rp4794
g1
(g5
g8
tp4795
Rp4796
tp4797
a(g1
(g5
g8
tp4798
Rp4799
g1
(g5
g8
tp4800
Rp4801
g1
(g5
g8
tp4802
Rp4803
tp4804
a(g1
(g5
g8
tp4805
Rp4806
g1
(g5
g8
tp4807
Rp4808
g1
(g5
g8
tp4809
Rp4810
tp4811
a(g1
(g5
g8
tp4812
Rp4813
g1
(g5
g8
tp4814
Rp4815
g1
(g5
g8
tp4816
Rp4817
tp4818
a(g1
(g5
g8
tp4819
Rp4820
g1
(g5
g8
tp4821
Rp4822
g1
(g5
g8
tp4823
Rp4824
tp4825
a(g1
(g5
g8
tp4826
Rp4827
g1
(g5
g8
tp4828
Rp4829
g1
(g5
g8
tp4830
Rp4831
tp4832
a(g1
(g5
g8
tp4833
Rp4834
g1
(g5
g8
tp4835
Rp4836
g1
(g5
g8
tp4837
Rp4838
tp4839
a(g1
(g5
g8
tp4840
Rp4841
g1
(g5
g8
tp4842
Rp4843
g1
(g5
g8
tp4844
Rp4845
tp4846
a(g1
(g5
g8
tp4847
Rp4848
g1
(g5
g8
tp4849
Rp4850
g1
(g5
g8
tp4851
Rp4852
tp4853
a(g1
(g5
g8
tp4854
Rp4855
g1
(g5
g8
tp4856
Rp4857
g1
(g5
g8
tp4858
Rp4859
tp4860
a(g1
(g5
g8
tp4861
Rp4862
g1
(g5
g8
tp4863
Rp4864
g1
(g5
g8
tp4865
Rp4866
tp4867
a(g1
(g5
g8
tp4868
Rp4869
g1
(g5
g8
tp4870
Rp4871
g1
(g5
g8
tp4872
Rp4873
tp4874
a(g1
(g5
g8
tp4875
Rp4876
g1
(g5
g8
tp4877
Rp4878
g1
(g5
g8
tp4879
Rp4880
tp4881
a(g1
(g5
g8
tp4882
Rp4883
g1
(g5
g8
tp4884
Rp4885
g1
(g5
g8
tp4886
Rp4887
tp4888
a(g1
(g5
g8
tp4889
Rp4890
g1
(g5
g8
tp4891
Rp4892
g1
(g5
g8
tp4893
Rp4894
tp4895
a(g1
(g5
g8
tp4896
Rp4897
g1
(g5
g8
tp4898
Rp4899
g1
(g5
g8
tp4900
Rp4901
tp4902
a(g1
(g5
g8
tp4903
Rp4904
g1
(g5
g8
tp4905
Rp4906
g1
(g5
g8
tp4907
Rp4908
tp4909
a(g1
(g5
g8
tp4910
Rp4911
g1
(g5
g8
tp4912
Rp4913
g1
(g5
g8
tp4914
Rp4915
tp4916
a(g1
(g5
g8
tp4917
Rp4918
g1
(g5
g8
tp4919
Rp4920
g1
(g5
g8
tp4921
Rp4922
tp4923
a(g1
(g5
g8
tp4924
Rp4925
g1
(g5
g8
tp4926
Rp4927
g1
(g5
g8
tp4928
Rp4929
tp4930
a(g1
(g5
g8
tp4931
Rp4932
g1
(g5
g8
tp4933
Rp4934
g1
(g5
g8
tp4935
Rp4936
tp4937
a(g1
(g5
g8
tp4938
Rp4939
g1
(g5
g8
tp4940
Rp4941
g1
(g5
g8
tp4942
Rp4943
tp4944
a(g1
(g5
g8
tp4945
Rp4946
g1
(g5
g8
tp4947
Rp4948
g1
(g5
g8
tp4949
Rp4950
tp4951
a(g1
(g5
g8
tp4952
Rp4953
g1
(g5
g8
tp4954
Rp4955
g1
(g5
g8
tp4956
Rp4957
tp4958
a(g1
(g5
g8
tp4959
Rp4960
g1
(g5
g8
tp4961
Rp4962
g1
(g5
g8
tp4963
Rp4964
tp4965
a(g1
(g5
g8
tp4966
Rp4967
g1
(g5
g8
tp4968
Rp4969
g1
(g5
g8
tp4970
Rp4971
tp4972
a(g1
(g5
g8
tp4973
Rp4974
g1
(g5
g8
tp4975
Rp4976
g1
(g5
g8
tp4977
Rp4978
tp4979
a(g1
(g5
g8
tp4980
Rp4981
g1
(g5
g8
tp4982
Rp4983
g1
(g5
g8
tp4984
Rp4985
tp4986
a(g1
(g5
g8
tp4987
Rp4988
g1
(g5
g8
tp4989
Rp4990
g1
(g5
g8
tp4991
Rp4992
tp4993
a(g1
(g5
g8
tp4994
Rp4995
g1
(g5
g8
tp4996
Rp4997
g1
(g5
g8
tp4998
Rp4999
tp5000
a(g1
(g5
g8
tp5001
Rp5002
g1
(g5
g8
tp5003
Rp5004
g1
(g5
g8
tp5005
Rp5006
tp5007
a(g1
(g5
g8
tp5008
Rp5009
g1
(g5
g8
tp5010
Rp5011
g1
(g5
g8
tp5012
Rp5013
tp5014
a(g1
(g5
g8
tp5015
Rp5016
g1
(g5
g8
tp5017
Rp5018
g1
(g5
g8
tp5019
Rp5020
tp5021
a(g1
(g5
g8
tp5022
Rp5023
g1
(g5
g8
tp5024
Rp5025
g1
(g5
g8
tp5026
Rp5027
tp5028
a(g1
(g5
g8
tp5029
Rp5030
g1
(g5
g8
tp5031
Rp5032
g1
(g5
g8
tp5033
Rp5034
tp5035
a(g1
(g5
g8
tp5036
Rp5037
g1
(g5
g8
tp5038
Rp5039
g1
(g5
g8
tp5040
Rp5041
tp5042
a(g1
(g5
g8
tp5043
Rp5044
g1
(g5
g8
tp5045
Rp5046
g1
(g5
g8
tp5047
Rp5048
tp5049
a.